(dp0
S'L78'
p1
(lp2
(S'A'
p3
I752
F4.74
tp4
a(S'C'
p5
I1
F0.01
tp6
a(S'D'
p7
I0
F0.0
tp8
a(S'E'
p9
I1
F0.01
tp10
a(S'F'
p11
I19
F0.12
tp12
a(S'G'
p13
I2
F0.01
tp14
a(S'H'
p15
I1
F0.01
tp16
a(S'I'
p17
I79
F0.5
tp18
a(S'K'
p19
I0
F0.0
tp20
a(S'L'
p21
I12225
F77.1
tp22
a(S'M'
p23
I51
F0.32
tp24
a(S'N'
p25
I2
F0.01
tp26
a(S'P'
p27
I32
F0.2
tp28
a(S'Q'
p29
I2
F0.01
tp30
a(S'R'
p31
I6
F0.04
tp32
a(S'S'
p33
I6
F0.04
tp34
a(S'T'
p35
I610
F3.85
tp36
a(S'V'
p37
I2064
F13.02
tp38
a(S'W'
p39
I0
F0.0
tp40
a(S'Y'
p41
I1
F0.01
tp42
asS'L79'
p43
(lp44
(g3
I51
F0.32
tp45
a(g5
I0
F0.0
tp46
a(g7
I101
F0.64
tp47
a(g9
I3921
F24.73
tp48
a(g11
I2
F0.01
tp49
a(g13
I27
F0.17
tp50
a(g15
I74
F0.47
tp51
a(g17
I20
F0.13
tp52
a(g19
I273
F1.72
tp53
a(g21
I51
F0.32
tp54
a(g23
I7
F0.04
tp55
a(g25
I3
F0.02
tp56
a(g27
I1
F0.01
tp57
a(g29
I10715
F67.58
tp58
a(g31
I569
F3.59
tp59
a(g33
I4
F0.03
tp60
a(g35
I7
F0.04
tp61
a(g37
I10
F0.06
tp62
a(g39
I6
F0.04
tp63
a(g41
I1
F0.01
tp64
asS'L72'
p65
(lp66
(g3
I336
F2.12
tp67
a(g5
I1
F0.01
tp68
a(g7
I0
F0.0
tp69
a(g9
I0
F0.0
tp70
a(g11
I154
F0.97
tp71
a(g13
I1
F0.01
tp72
a(g15
I5
F0.03
tp73
a(g17
I184
F1.16
tp74
a(g19
I3
F0.02
tp75
a(g21
I24
F0.15
tp76
a(g23
I3
F0.02
tp77
a(g25
I96
F0.61
tp78
a(g27
I9
F0.06
tp79
a(g29
I0
F0.0
tp80
a(g31
I4
F0.03
tp81
a(g33
I3962
F24.99
tp82
a(g35
I10802
F68.13
tp83
a(g37
I19
F0.12
tp84
a(g39
I1
F0.01
tp85
a(g41
I248
F1.56
tp86
asS'L73'
p87
(lp88
(g3
I2
F0.01
tp89
a(g5
I1
F0.01
tp90
a(g7
I0
F0.0
tp91
a(g9
I1
F0.01
tp92
a(g11
I442
F2.79
tp93
a(g13
I0
F0.0
tp94
a(g15
I5
F0.03
tp95
a(g17
I7
F0.04
tp96
a(g19
I0
F0.0
tp97
a(g21
I15343
F96.76
tp98
a(g23
I5
F0.03
tp99
a(g25
I2
F0.01
tp100
a(g27
I15
F0.09
tp101
a(g29
I5
F0.03
tp102
a(g31
I2
F0.01
tp103
a(g33
I8
F0.05
tp104
a(g35
I7
F0.04
tp105
a(g37
I8
F0.05
tp106
a(g39
I1
F0.01
tp107
a(g41
I0
F0.0
tp108
asS'L70'
p109
(lp110
(g3
I198
F1.25
tp111
a(g5
I2
F0.01
tp112
a(g7
I6798
F42.87
tp113
a(g9
I1822
F11.49
tp114
a(g11
I4
F0.03
tp115
a(g13
I22
F0.14
tp116
a(g15
I104
F0.66
tp117
a(g17
I30
F0.19
tp118
a(g19
I264
F1.66
tp119
a(g21
I13
F0.08
tp120
a(g23
I126
F0.79
tp121
a(g25
I253
F1.6
tp122
a(g27
I5
F0.03
tp123
a(g29
I36
F0.23
tp124
a(g31
I32
F0.2
tp125
a(g33
I2843
F17.93
tp126
a(g35
I3227
F20.35
tp127
a(g37
I43
F0.27
tp128
a(g39
I1
F0.01
tp129
a(g41
I26
F0.16
tp130
asS'L71'
p131
(lp132
(g3
I6184
F39.0
tp133
a(g5
I4
F0.03
tp134
a(g7
I10
F0.06
tp135
a(g9
I1
F0.01
tp136
a(g11
I8606
F54.28
tp137
a(g13
I177
F1.12
tp138
a(g15
I2
F0.01
tp139
a(g17
I2
F0.01
tp140
a(g19
I0
F0.0
tp141
a(g21
I27
F0.17
tp142
a(g23
I0
F0.0
tp143
a(g25
I0
F0.0
tp144
a(g27
I2
F0.01
tp145
a(g29
I1
F0.01
tp146
a(g31
I235
F1.48
tp147
a(g33
I35
F0.22
tp148
a(g35
I27
F0.17
tp149
a(g37
I220
F1.39
tp150
a(g39
I3
F0.02
tp151
a(g41
I316
F1.99
tp152
asS'L76'
p153
(lp154
(g3
I90
F0.57
tp155
a(g5
I7
F0.04
tp156
a(g7
I55
F0.35
tp157
a(g9
I7
F0.04
tp158
a(g11
I12
F0.08
tp159
a(g13
I55
F0.35
tp160
a(g15
I11
F0.07
tp161
a(g17
I52
F0.33
tp162
a(g19
I54
F0.34
tp163
a(g21
I5
F0.03
tp164
a(g23
I2
F0.01
tp165
a(g25
I653
F4.12
tp166
a(g27
I5
F0.03
tp167
a(g29
I1
F0.01
tp168
a(g31
I133
F0.84
tp169
a(g33
I12152
F76.64
tp170
a(g35
I2536
F15.99
tp171
a(g37
I6
F0.04
tp172
a(g39
I2
F0.01
tp173
a(g41
I8
F0.05
tp174
asS'L77'
p175
(lp176
(g3
I25
F0.16
tp177
a(g5
I108
F0.68
tp178
a(g7
I50
F0.32
tp179
a(g9
I49
F0.31
tp180
a(g11
I1
F0.01
tp181
a(g13
I6239
F39.35
tp182
a(g15
I2
F0.01
tp183
a(g17
I12
F0.08
tp184
a(g19
I235
F1.48
tp185
a(g21
I0
F0.0
tp186
a(g23
I2
F0.01
tp187
a(g25
I381
F2.4
tp188
a(g27
I20
F0.13
tp189
a(g29
I3
F0.02
tp190
a(g31
I3121
F19.68
tp191
a(g33
I5506
F34.73
tp192
a(g35
I89
F0.56
tp193
a(g37
I2
F0.01
tp194
a(g39
I8
F0.05
tp195
a(g41
I0
F0.0
tp196
asS'L74'
p197
(lp198
(g3
I1686
F10.63
tp199
a(g5
I0
F0.0
tp200
a(g7
I76
F0.48
tp201
a(g9
I19
F0.12
tp202
a(g11
I3
F0.02
tp203
a(g13
I679
F4.28
tp204
a(g15
I9
F0.06
tp205
a(g17
I263
F1.66
tp206
a(g19
I826
F5.21
tp207
a(g21
I125
F0.79
tp208
a(g23
I2
F0.01
tp209
a(g25
I39
F0.25
tp210
a(g27
I3
F0.02
tp211
a(g29
I9
F0.06
tp212
a(g31
I64
F0.4
tp213
a(g33
I168
F1.06
tp214
a(g35
I11798
F74.41
tp215
a(g37
I85
F0.54
tp216
a(g39
I0
F0.0
tp217
a(g41
I1
F0.01
tp218
asS'L75'
p219
(lp220
(g3
I1
F0.01
tp221
a(g5
I0
F0.0
tp222
a(g7
I0
F0.0
tp223
a(g9
I1
F0.01
tp224
a(g11
I23
F0.15
tp225
a(g13
I0
F0.0
tp226
a(g15
I0
F0.0
tp227
a(g17
I15183
F95.76
tp228
a(g19
I0
F0.0
tp229
a(g21
I195
F1.23
tp230
a(g23
I3
F0.02
tp231
a(g25
I5
F0.03
tp232
a(g27
I0
F0.0
tp233
a(g29
I0
F0.0
tp234
a(g31
I0
F0.0
tp235
a(g33
I8
F0.05
tp236
a(g35
I16
F0.1
tp237
a(g37
I419
F2.64
tp238
a(g39
I0
F0.0
tp239
a(g41
I1
F0.01
tp240
asS'L54A'
p241
(lp242
(g3
I0
F0.0
tp243
a(g5
I1
F0.26
tp244
a(g7
I130
F33.16
tp245
a(g9
I2
F0.51
tp246
a(g11
I0
F0.0
tp247
a(g13
I3
F0.77
tp248
a(g15
I0
F0.0
tp249
a(g17
I26
F6.63
tp250
a(g19
I1
F0.26
tp251
a(g21
I1
F0.26
tp252
a(g23
I0
F0.0
tp253
a(g25
I15
F3.83
tp254
a(g27
I0
F0.0
tp255
a(g29
I0
F0.0
tp256
a(g31
I16
F4.08
tp257
a(g33
I184
F46.94
tp258
a(g35
I13
F3.32
tp259
a(g37
I0
F0.0
tp260
a(g39
I0
F0.0
tp261
a(g41
I0
F0.0
tp262
asS'L54C'
p263
(lp264
(g3
I0
F0.0
tp265
a(g5
I0
F0.0
tp266
a(g7
I1
F0.26
tp267
a(g9
I10
F2.6
tp268
a(g11
I3
F0.78
tp269
a(g13
I48
F12.47
tp270
a(g15
I8
F2.08
tp271
a(g17
I15
F3.9
tp272
a(g19
I4
F1.04
tp273
a(g21
I1
F0.26
tp274
a(g23
I0
F0.0
tp275
a(g25
I70
F18.18
tp276
a(g27
I0
F0.0
tp277
a(g29
I95
F24.68
tp278
a(g31
I2
F0.52
tp279
a(g33
I99
F25.71
tp280
a(g35
I26
F6.75
tp281
a(g37
I1
F0.26
tp282
a(g39
I0
F0.0
tp283
a(g41
I2
F0.52
tp284
asS'L54B'
p285
(lp286
(g3
I0
F0.0
tp287
a(g5
I0
F0.0
tp288
a(g7
I0
F0.0
tp289
a(g9
I1
F0.26
tp290
a(g11
I2
F0.52
tp291
a(g13
I0
F0.0
tp292
a(g15
I171
F44.42
tp293
a(g17
I0
F0.0
tp294
a(g19
I129
F33.51
tp295
a(g21
I0
F0.0
tp296
a(g23
I2
F0.52
tp297
a(g25
I7
F1.82
tp298
a(g27
I1
F0.26
tp299
a(g29
I3
F0.78
tp300
a(g31
I1
F0.26
tp301
a(g33
I2
F0.52
tp302
a(g35
I0
F0.0
tp303
a(g37
I28
F7.27
tp304
a(g39
I0
F0.0
tp305
a(g41
I38
F9.87
tp306
asS'L54E'
p307
(lp308
(g3
I0
F0.0
tp309
a(g5
I0
F0.0
tp310
a(g7
I0
F0.0
tp311
a(g9
I0
F0.0
tp312
a(g11
I0
F0.0
tp313
a(g13
I0
F0.0
tp314
a(g15
I0
F0.0
tp315
a(g17
I0
F0.0
tp316
a(g19
I24
F92.31
tp317
a(g21
I1
F3.85
tp318
a(g23
I0
F0.0
tp319
a(g25
I0
F0.0
tp320
a(g27
I0
F0.0
tp321
a(g29
I0
F0.0
tp322
a(g31
I1
F3.85
tp323
a(g33
I0
F0.0
tp324
a(g35
I0
F0.0
tp325
a(g37
I0
F0.0
tp326
a(g39
I0
F0.0
tp327
a(g41
I0
F0.0
tp328
asS'L54D'
p329
(lp330
(g3
I0
F0.0
tp331
a(g5
I0
F0.0
tp332
a(g7
I0
F0.0
tp333
a(g9
I4
F1.04
tp334
a(g11
I0
F0.0
tp335
a(g13
I0
F0.0
tp336
a(g15
I0
F0.0
tp337
a(g17
I0
F0.0
tp338
a(g19
I190
F49.35
tp339
a(g21
I4
F1.04
tp340
a(g23
I2
F0.52
tp341
a(g25
I0
F0.0
tp342
a(g27
I0
F0.0
tp343
a(g29
I133
F34.55
tp344
a(g31
I15
F3.9
tp345
a(g33
I25
F6.49
tp346
a(g35
I11
F2.86
tp347
a(g37
I1
F0.26
tp348
a(g39
I0
F0.0
tp349
a(g41
I0
F0.0
tp350
asS'L18'
p351
(lp352
(g3
I41
F0.27
tp353
a(g5
I0
F0.0
tp354
a(g7
I2
F0.01
tp355
a(g9
I30
F0.2
tp356
a(g11
I0
F0.0
tp357
a(g13
I96
F0.64
tp358
a(g15
I1
F0.01
tp359
a(g17
I4
F0.03
tp360
a(g19
I832
F5.53
tp361
a(g21
I12
F0.08
tp362
a(g23
I31
F0.21
tp363
a(g25
I43
F0.29
tp364
a(g27
I810
F5.38
tp365
a(g29
I23
F0.15
tp366
a(g31
I8451
F56.12
tp367
a(g33
I1915
F12.72
tp368
a(g35
I2737
F18.18
tp369
a(g37
I18
F0.12
tp370
a(g39
I11
F0.07
tp371
a(g41
I0
F0.0
tp372
asS'L19'
p373
(lp374
(g3
I5988
F39.51
tp375
a(g5
I2
F0.01
tp376
a(g7
I5
F0.03
tp377
a(g9
I0
F0.0
tp378
a(g11
I1
F0.01
tp379
a(g13
I138
F0.91
tp380
a(g15
I0
F0.0
tp381
a(g17
I1111
F7.33
tp382
a(g19
I1
F0.01
tp383
a(g21
I32
F0.21
tp384
a(g23
I1
F0.01
tp385
a(g25
I1
F0.01
tp386
a(g27
I5
F0.03
tp387
a(g29
I0
F0.0
tp388
a(g31
I1
F0.01
tp389
a(g33
I10
F0.07
tp390
a(g35
I31
F0.2
tp391
a(g37
I7827
F51.64
tp392
a(g39
I0
F0.0
tp393
a(g41
I0
F0.0
tp394
asS'L14'
p395
(lp396
(g3
I2253
F15.59
tp397
a(g5
I12
F0.08
tp398
a(g7
I10
F0.07
tp399
a(g9
I1
F0.01
tp400
a(g11
I89
F0.62
tp401
a(g13
I47
F0.33
tp402
a(g15
I5
F0.03
tp403
a(g17
I9
F0.06
tp404
a(g19
I0
F0.0
tp405
a(g21
I22
F0.15
tp406
a(g23
I0
F0.0
tp407
a(g25
I10
F0.07
tp408
a(g27
I67
F0.46
tp409
a(g29
I1
F0.01
tp410
a(g31
I8
F0.06
tp411
a(g33
I10190
F70.5
tp412
a(g35
I1681
F11.63
tp413
a(g37
I23
F0.16
tp414
a(g39
I5
F0.03
tp415
a(g41
I20
F0.14
tp416
asS'L15'
p417
(lp418
(g3
I46
F0.32
tp419
a(g5
I5
F0.03
tp420
a(g7
I7
F0.05
tp421
a(g9
I7
F0.05
tp422
a(g11
I10
F0.07
tp423
a(g13
I16
F0.11
tp424
a(g15
I1
F0.01
tp425
a(g17
I159
F1.09
tp426
a(g19
I2
F0.01
tp427
a(g21
I1793
F12.33
tp428
a(g23
I3
F0.02
tp429
a(g25
I0
F0.0
tp430
a(g27
I8955
F61.56
tp431
a(g29
I7
F0.05
tp432
a(g31
I8
F0.05
tp433
a(g33
I45
F0.31
tp434
a(g35
I98
F0.67
tp435
a(g37
I3378
F23.22
tp436
a(g39
I1
F0.01
tp437
a(g41
I0
F0.0
tp438
asS'L16'
p439
(lp440
(g3
I15
F0.1
tp441
a(g5
I1
F0.01
tp442
a(g7
I13
F0.09
tp443
a(g9
I17
F0.12
tp444
a(g11
I1
F0.01
tp445
a(g13
I14415
F98.13
tp446
a(g15
I0
F0.0
tp447
a(g17
I0
F0.0
tp448
a(g19
I33
F0.22
tp449
a(g21
I5
F0.03
tp450
a(g23
I0
F0.0
tp451
a(g25
I0
F0.0
tp452
a(g27
I10
F0.07
tp453
a(g29
I6
F0.04
tp454
a(g31
I143
F0.97
tp455
a(g33
I11
F0.07
tp456
a(g35
I1
F0.01
tp457
a(g37
I3
F0.02
tp458
a(g39
I11
F0.07
tp459
a(g41
I0
F0.0
tp460
asS'L17'
p461
(lp462
(g3
I304
F2.04
tp463
a(g5
I1
F0.01
tp464
a(g7
I3984
F26.79
tp465
a(g9
I3900
F26.23
tp466
a(g11
I0
F0.0
tp467
a(g13
I310
F2.08
tp468
a(g15
I22
F0.15
tp469
a(g17
I0
F0.0
tp470
a(g19
I457
F3.07
tp471
a(g21
I13
F0.09
tp472
a(g23
I4
F0.03
tp473
a(g25
I21
F0.14
tp474
a(g27
I5
F0.03
tp475
a(g29
I5720
F38.46
tp476
a(g31
I46
F0.31
tp477
a(g33
I44
F0.3
tp478
a(g35
I24
F0.16
tp479
a(g37
I10
F0.07
tp480
a(g39
I0
F0.0
tp481
a(g41
I5
F0.03
tp482
asS'L10'
p483
(lp484
(g3
I39
F0.59
tp485
a(g5
I2
F0.03
tp486
a(g7
I0
F0.0
tp487
a(g9
I1
F0.02
tp488
a(g11
I174
F2.64
tp489
a(g13
I0
F0.0
tp490
a(g15
I1
F0.02
tp491
a(g17
I64
F0.97
tp492
a(g19
I0
F0.0
tp493
a(g21
I21
F0.32
tp494
a(g23
I2
F0.03
tp495
a(g25
I11
F0.17
tp496
a(g27
I19
F0.29
tp497
a(g29
I0
F0.0
tp498
a(g31
I2
F0.03
tp499
a(g33
I3487
F52.87
tp500
a(g35
I2754
F41.76
tp501
a(g37
I7
F0.11
tp502
a(g39
I0
F0.0
tp503
a(g41
I11
F0.17
tp504
asS'L11'
p505
(lp506
(g3
I1196
F8.57
tp507
a(g5
I7
F0.05
tp508
a(g7
I0
F0.0
tp509
a(g9
I12
F0.09
tp510
a(g11
I114
F0.82
tp511
a(g13
I4
F0.03
tp512
a(g15
I8
F0.06
tp513
a(g17
I12
F0.09
tp514
a(g19
I0
F0.0
tp515
a(g21
I7667
F54.94
tp516
a(g23
I100
F0.72
tp517
a(g25
I8
F0.06
tp518
a(g27
I17
F0.12
tp519
a(g29
I37
F0.27
tp520
a(g31
I6
F0.04
tp521
a(g33
I74
F0.53
tp522
a(g35
I16
F0.11
tp523
a(g37
I4661
F33.4
tp524
a(g39
I1
F0.01
tp525
a(g41
I14
F0.1
tp526
asS'L12'
p527
(lp528
(g3
I709
F5.0
tp529
a(g5
I12
F0.08
tp530
a(g7
I1
F0.01
tp531
a(g9
I0
F0.0
tp532
a(g11
I27
F0.19
tp533
a(g13
I7
F0.05
tp534
a(g15
I1
F0.01
tp535
a(g17
I1
F0.01
tp536
a(g19
I0
F0.0
tp537
a(g21
I11
F0.08
tp538
a(g23
I0
F0.0
tp539
a(g25
I4
F0.03
tp540
a(g27
I658
F4.64
tp541
a(g29
I1
F0.01
tp542
a(g31
I4
F0.03
tp543
a(g33
I12460
F87.85
tp544
a(g35
I202
F1.42
tp545
a(g37
I54
F0.38
tp546
a(g39
I2
F0.01
tp547
a(g41
I26
F0.18
tp548
asS'L13'
p549
(lp550
(g3
I4834
F33.71
tp551
a(g5
I9
F0.06
tp552
a(g7
I3
F0.02
tp553
a(g9
I304
F2.12
tp554
a(g11
I14
F0.1
tp555
a(g13
I2700
F18.83
tp556
a(g15
I2
F0.01
tp557
a(g17
I6
F0.04
tp558
a(g19
I37
F0.26
tp559
a(g21
I2153
F15.02
tp560
a(g23
I19
F0.13
tp561
a(g25
I0
F0.0
tp562
a(g27
I7
F0.05
tp563
a(g29
I2
F0.01
tp564
a(g31
I7
F0.05
tp565
a(g33
I31
F0.22
tp566
a(g35
I26
F0.18
tp567
a(g37
I4173
F29.1
tp568
a(g39
I7
F0.05
tp569
a(g41
I0
F0.0
tp570
asS'L106A'
p571
(lp572
(g3
I0
F0.0
tp573
a(g5
I0
F0.0
tp574
a(g7
I0
F0.0
tp575
a(g9
I0
F0.0
tp576
a(g11
I0
F0.0
tp577
a(g13
I0
F0.0
tp578
a(g15
I0
F0.0
tp579
a(g17
I0
F0.0
tp580
a(g19
I0
F0.0
tp581
a(g21
I4662
F100.0
tp582
a(g23
I0
F0.0
tp583
a(g25
I0
F0.0
tp584
a(g27
I0
F0.0
tp585
a(g29
I0
F0.0
tp586
a(g31
I0
F0.0
tp587
a(g33
I0
F0.0
tp588
a(g35
I0
F0.0
tp589
a(g37
I0
F0.0
tp590
a(g39
I0
F0.0
tp591
a(g41
I0
F0.0
tp592
asS'L27C'
p593
(lp594
(g3
I9
F0.22
tp595
a(g5
I9
F0.22
tp596
a(g7
I27
F0.67
tp597
a(g9
I5
F0.12
tp598
a(g11
I69
F1.72
tp599
a(g13
I9
F0.22
tp600
a(g15
I0
F0.0
tp601
a(g17
I639
F15.92
tp602
a(g19
I1
F0.02
tp603
a(g21
I1218
F30.34
tp604
a(g23
I5
F0.12
tp605
a(g25
I113
F2.82
tp606
a(g27
I4
F0.1
tp607
a(g29
I18
F0.45
tp608
a(g31
I15
F0.37
tp609
a(g33
I84
F2.09
tp610
a(g35
I11
F0.27
tp611
a(g37
I1770
F44.1
tp612
a(g39
I1
F0.02
tp613
a(g41
I5
F0.12
tp614
asS'L27B'
p615
(lp616
(g3
I152
F2.38
tp617
a(g5
I0
F0.0
tp618
a(g7
I1457
F22.81
tp619
a(g9
I6
F0.09
tp620
a(g11
I25
F0.39
tp621
a(g13
I10
F0.16
tp622
a(g15
I15
F0.23
tp623
a(g17
I237
F3.71
tp624
a(g19
I16
F0.25
tp625
a(g21
I958
F15.0
tp626
a(g23
I0
F0.0
tp627
a(g25
I2345
F36.71
tp628
a(g27
I29
F0.45
tp629
a(g29
I1
F0.02
tp630
a(g31
I11
F0.17
tp631
a(g33
I356
F5.57
tp632
a(g35
I65
F1.02
tp633
a(g37
I688
F10.77
tp634
a(g39
I0
F0.0
tp635
a(g41
I16
F0.25
tp636
asS'L27A'
p637
(lp638
(g3
I151
F1.83
tp639
a(g5
I3
F0.04
tp640
a(g7
I85
F1.03
tp641
a(g9
I32
F0.39
tp642
a(g11
I26
F0.32
tp643
a(g13
I918
F11.12
tp644
a(g15
I5
F0.06
tp645
a(g17
I39
F0.47
tp646
a(g19
I5
F0.06
tp647
a(g21
I7
F0.08
tp648
a(g23
I0
F0.0
tp649
a(g25
I199
F2.41
tp650
a(g27
I20
F0.24
tp651
a(g29
I12
F0.15
tp652
a(g31
I117
F1.42
tp653
a(g33
I6455
F78.21
tp654
a(g35
I150
F1.82
tp655
a(g37
I5
F0.06
tp656
a(g39
I1
F0.01
tp657
a(g41
I20
F0.24
tp658
asS'L27F'
p659
(lp660
(g3
I21
F2.69
tp661
a(g5
I0
F0.0
tp662
a(g7
I26
F3.32
tp663
a(g9
I0
F0.0
tp664
a(g11
I13
F1.66
tp665
a(g13
I5
F0.64
tp666
a(g15
I1
F0.13
tp667
a(g17
I0
F0.0
tp668
a(g19
I0
F0.0
tp669
a(g21
I5
F0.64
tp670
a(g23
I0
F0.0
tp671
a(g25
I1
F0.13
tp672
a(g27
I32
F4.09
tp673
a(g29
I0
F0.0
tp674
a(g31
I0
F0.0
tp675
a(g33
I656
F83.89
tp676
a(g35
I13
F1.66
tp677
a(g37
I1
F0.13
tp678
a(g39
I0
F0.0
tp679
a(g41
I8
F1.02
tp680
asS'L27E'
p681
(lp682
(g3
I8
F0.48
tp683
a(g5
I0
F0.0
tp684
a(g7
I8
F0.48
tp685
a(g9
I2
F0.12
tp686
a(g11
I0
F0.0
tp687
a(g13
I72
F4.3
tp688
a(g15
I0
F0.0
tp689
a(g17
I23
F1.37
tp690
a(g19
I6
F0.36
tp691
a(g21
I1
F0.06
tp692
a(g23
I2
F0.12
tp693
a(g25
I68
F4.06
tp694
a(g27
I4
F0.24
tp695
a(g29
I0
F0.0
tp696
a(g31
I68
F4.06
tp697
a(g33
I1334
F79.59
tp698
a(g35
I71
F4.24
tp699
a(g37
I3
F0.18
tp700
a(g39
I2
F0.12
tp701
a(g41
I4
F0.24
tp702
asS'L27D'
p703
(lp704
(g3
I4
F0.23
tp705
a(g5
I0
F0.0
tp706
a(g7
I56
F3.25
tp707
a(g9
I6
F0.35
tp708
a(g11
I58
F3.37
tp709
a(g13
I6
F0.35
tp710
a(g15
I640
F37.14
tp711
a(g17
I1
F0.06
tp712
a(g19
I6
F0.35
tp713
a(g21
I38
F2.21
tp714
a(g23
I0
F0.0
tp715
a(g25
I31
F1.8
tp716
a(g27
I0
F0.0
tp717
a(g29
I18
F1.04
tp718
a(g31
I15
F0.87
tp719
a(g33
I51
F2.96
tp720
a(g35
I11
F0.64
tp721
a(g37
I3
F0.17
tp722
a(g39
I3
F0.17
tp723
a(g41
I775
F44.98
tp724
asS'L87'
p725
(lp726
(g3
I0
F0.0
tp727
a(g5
I41
F0.26
tp728
a(g7
I0
F0.0
tp729
a(g9
I0
F0.0
tp730
a(g11
I1038
F6.55
tp731
a(g13
I0
F0.0
tp732
a(g15
I228
F1.44
tp733
a(g17
I36
F0.23
tp734
a(g19
I0
F0.0
tp735
a(g21
I33
F0.21
tp736
a(g23
I3
F0.02
tp737
a(g25
I1
F0.01
tp738
a(g27
I0
F0.0
tp739
a(g29
I1
F0.01
tp740
a(g31
I1
F0.01
tp741
a(g33
I75
F0.47
tp742
a(g35
I1
F0.01
tp743
a(g37
I5
F0.03
tp744
a(g39
I10
F0.06
tp745
a(g41
I14380
F90.69
tp746
asS'L86'
p747
(lp748
(g3
I1
F0.01
tp749
a(g5
I7
F0.04
tp750
a(g7
I0
F0.0
tp751
a(g9
I0
F0.0
tp752
a(g11
I112
F0.71
tp753
a(g13
I0
F0.0
tp754
a(g15
I13
F0.08
tp755
a(g17
I0
F0.0
tp756
a(g19
I0
F0.0
tp757
a(g21
I5
F0.03
tp758
a(g23
I0
F0.0
tp759
a(g25
I6
F0.04
tp760
a(g27
I0
F0.0
tp761
a(g29
I0
F0.0
tp762
a(g31
I0
F0.0
tp763
a(g33
I4
F0.03
tp764
a(g35
I0
F0.0
tp765
a(g37
I2
F0.01
tp766
a(g39
I0
F0.0
tp767
a(g41
I15703
F99.04
tp768
asS'L85'
p769
(lp770
(g3
I88
F0.55
tp771
a(g5
I0
F0.0
tp772
a(g7
I6255
F39.45
tp773
a(g9
I288
F1.82
tp774
a(g11
I83
F0.52
tp775
a(g13
I29
F0.18
tp776
a(g15
I53
F0.33
tp777
a(g17
I320
F2.02
tp778
a(g19
I3
F0.02
tp779
a(g21
I139
F0.88
tp780
a(g23
I76
F0.48
tp781
a(g25
I56
F0.35
tp782
a(g27
I2
F0.01
tp783
a(g29
I15
F0.09
tp784
a(g31
I6
F0.04
tp785
a(g33
I86
F0.54
tp786
a(g35
I3852
F24.29
tp787
a(g37
I4459
F28.12
tp788
a(g39
I0
F0.0
tp789
a(g41
I35
F0.22
tp790
asS'L84'
p791
(lp792
(g3
I14193
F89.51
tp793
a(g5
I11
F0.07
tp794
a(g7
I10
F0.06
tp795
a(g9
I0
F0.0
tp796
a(g11
I1
F0.01
tp797
a(g13
I1395
F8.8
tp798
a(g15
I0
F0.0
tp799
a(g17
I2
F0.01
tp800
a(g19
I0
F0.0
tp801
a(g21
I2
F0.01
tp802
a(g23
I0
F0.0
tp803
a(g25
I0
F0.0
tp804
a(g27
I4
F0.03
tp805
a(g29
I0
F0.0
tp806
a(g31
I1
F0.01
tp807
a(g33
I132
F0.83
tp808
a(g35
I51
F0.32
tp809
a(g37
I53
F0.33
tp810
a(g39
I0
F0.0
tp811
a(g41
I0
F0.0
tp812
asS'L83'
p813
(lp814
(g3
I96
F0.61
tp815
a(g5
I22
F0.14
tp816
a(g7
I67
F0.42
tp817
a(g9
I6739
F42.5
tp818
a(g11
I6146
F38.76
tp819
a(g13
I21
F0.13
tp820
a(g15
I0
F0.0
tp821
a(g17
I384
F2.42
tp822
a(g19
I10
F0.06
tp823
a(g21
I140
F0.88
tp824
a(g23
I7
F0.04
tp825
a(g25
I2
F0.01
tp826
a(g27
I0
F0.0
tp827
a(g29
I9
F0.06
tp828
a(g31
I0
F0.0
tp829
a(g33
I189
F1.19
tp830
a(g35
I15
F0.09
tp831
a(g37
I1984
F12.51
tp832
a(g39
I0
F0.0
tp833
a(g41
I14
F0.09
tp834
asS'L82'
p835
(lp836
(g3
I3
F0.02
tp837
a(g5
I0
F0.0
tp838
a(g7
I15768
F99.45
tp839
a(g9
I7
F0.04
tp840
a(g11
I0
F0.0
tp841
a(g13
I19
F0.12
tp842
a(g15
I2
F0.01
tp843
a(g17
I1
F0.01
tp844
a(g19
I1
F0.01
tp845
a(g21
I0
F0.0
tp846
a(g23
I0
F0.0
tp847
a(g25
I27
F0.17
tp848
a(g27
I0
F0.0
tp849
a(g29
I1
F0.01
tp850
a(g31
I2
F0.01
tp851
a(g33
I1
F0.01
tp852
a(g35
I1
F0.01
tp853
a(g37
I8
F0.05
tp854
a(g39
I0
F0.0
tp855
a(g41
I1
F0.01
tp856
asS'L81'
p857
(lp858
(g3
I65
F0.41
tp859
a(g5
I0
F0.0
tp860
a(g7
I1099
F6.93
tp861
a(g9
I12291
F77.52
tp862
a(g11
I1
F0.01
tp863
a(g13
I1710
F10.78
tp864
a(g15
I0
F0.0
tp865
a(g17
I31
F0.2
tp866
a(g19
I9
F0.06
tp867
a(g21
I46
F0.29
tp868
a(g23
I449
F2.83
tp869
a(g25
I15
F0.09
tp870
a(g27
I3
F0.02
tp871
a(g29
I16
F0.1
tp872
a(g31
I3
F0.02
tp873
a(g33
I1
F0.01
tp874
a(g35
I48
F0.3
tp875
a(g37
I58
F0.37
tp876
a(g39
I4
F0.03
tp877
a(g41
I0
F0.0
tp878
asS'L80'
p879
(lp880
(g3
I5252
F33.12
tp881
a(g5
I1
F0.01
tp882
a(g7
I9
F0.06
tp883
a(g9
I47
F0.3
tp884
a(g11
I30
F0.19
tp885
a(g13
I22
F0.14
tp886
a(g15
I3
F0.02
tp887
a(g17
I12
F0.08
tp888
a(g19
I2
F0.01
tp889
a(g21
I28
F0.18
tp890
a(g23
I7
F0.04
tp891
a(g25
I3
F0.02
tp892
a(g27
I6278
F39.59
tp893
a(g29
I4
F0.03
tp894
a(g31
I154
F0.97
tp895
a(g33
I2196
F13.85
tp896
a(g35
I1582
F9.98
tp897
a(g37
I218
F1.37
tp898
a(g39
I0
F0.0
tp899
a(g41
I4
F0.03
tp900
asS'L89'
p901
(lp902
(g3
I1115
F7.14
tp903
a(g5
I381
F2.44
tp904
a(g7
I14
F0.09
tp905
a(g9
I116
F0.74
tp906
a(g11
I50
F0.32
tp907
a(g13
I866
F5.54
tp908
a(g15
I356
F2.28
tp909
a(g17
I16
F0.1
tp910
a(g19
I35
F0.22
tp911
a(g21
I590
F3.78
tp912
a(g23
I926
F5.93
tp913
a(g25
I333
F2.13
tp914
a(g27
I6
F0.04
tp915
a(g29
I9404
F60.2
tp916
a(g31
I31
F0.2
tp917
a(g33
I989
F6.33
tp918
a(g35
I121
F0.77
tp919
a(g37
I94
F0.6
tp920
a(g39
I5
F0.03
tp921
a(g41
I163
F1.04
tp922
asS'L88'
p923
(lp924
(g3
I2
F0.01
tp925
a(g5
I15792
F99.6
tp926
a(g7
I0
F0.0
tp927
a(g9
I0
F0.0
tp928
a(g11
I2
F0.01
tp929
a(g13
I9
F0.06
tp930
a(g15
I0
F0.0
tp931
a(g17
I0
F0.0
tp932
a(g19
I0
F0.0
tp933
a(g21
I1
F0.01
tp934
a(g23
I0
F0.0
tp935
a(g25
I1
F0.01
tp936
a(g27
I0
F0.0
tp937
a(g29
I1
F0.01
tp938
a(g31
I16
F0.1
tp939
a(g33
I9
F0.06
tp940
a(g35
I0
F0.0
tp941
a(g37
I4
F0.03
tp942
a(g39
I7
F0.04
tp943
a(g41
I7
F0.04
tp944
asS'L94'
p945
(lp946
(g3
I303
F2.05
tp947
a(g5
I14
F0.09
tp948
a(g7
I202
F1.37
tp949
a(g9
I27
F0.18
tp950
a(g11
I719
F4.86
tp951
a(g13
I564
F3.81
tp952
a(g15
I52
F0.35
tp953
a(g17
I255
F1.72
tp954
a(g19
I27
F0.18
tp955
a(g21
I598
F4.04
tp956
a(g23
I34
F0.23
tp957
a(g25
I498
F3.37
tp958
a(g27
I195
F1.32
tp959
a(g29
I15
F0.1
tp960
a(g31
I377
F2.55
tp961
a(g33
I6064
F40.98
tp962
a(g35
I2126
F14.37
tp963
a(g37
I166
F1.12
tp964
a(g39
I1335
F9.02
tp965
a(g41
I1217
F8.22
tp966
asS'L95'
p967
(lp968
(g3
I349
F2.47
tp969
a(g5
I8
F0.06
tp970
a(g7
I155
F1.1
tp971
a(g9
I41
F0.29
tp972
a(g11
I86
F0.61
tp973
a(g13
I897
F6.35
tp974
a(g15
I69
F0.49
tp975
a(g17
I193
F1.37
tp976
a(g19
I105
F0.74
tp977
a(g21
I2642
F18.71
tp978
a(g23
I31
F0.22
tp979
a(g25
I522
F3.7
tp980
a(g27
I6183
F43.78
tp981
a(g29
I65
F0.46
tp982
a(g31
I223
F1.58
tp983
a(g33
I1547
F10.95
tp984
a(g35
I610
F4.32
tp985
a(g37
I182
F1.29
tp986
a(g39
I46
F0.33
tp987
a(g41
I162
F1.15
tp988
asS'L96'
p989
(lp990
(g3
I270
F2.11
tp991
a(g5
I80
F0.62
tp992
a(g7
I58
F0.45
tp993
a(g9
I663
F5.17
tp994
a(g11
I828
F6.46
tp995
a(g13
I929
F7.25
tp996
a(g15
I148
F1.15
tp997
a(g17
I457
F3.56
tp998
a(g19
I71
F0.55
tp999
a(g21
I1610
F12.56
tp1000
a(g23
I38
F0.3
tp1001
a(g25
I136
F1.06
tp1002
a(g27
I731
F5.7
tp1003
a(g29
I265
F2.07
tp1004
a(g31
I1044
F8.14
tp1005
a(g33
I243
F1.9
tp1006
a(g35
I93
F0.73
tp1007
a(g37
I1520
F11.86
tp1008
a(g39
I1811
F14.13
tp1009
a(g41
I1816
F14.17
tp1010
asS'L97'
p1011
(lp1012
(g3
I209
F1.63
tp1013
a(g5
I0
F0.0
tp1014
a(g7
I11
F0.09
tp1015
a(g9
I13
F0.1
tp1016
a(g11
I334
F2.61
tp1017
a(g13
I142
F1.11
tp1018
a(g15
I15
F0.12
tp1019
a(g17
I322
F2.52
tp1020
a(g19
I6
F0.05
tp1021
a(g21
I304
F2.38
tp1022
a(g23
I54
F0.42
tp1023
a(g25
I107
F0.84
tp1024
a(g27
I56
F0.44
tp1025
a(g29
I14
F0.11
tp1026
a(g31
I16
F0.13
tp1027
a(g33
I327
F2.56
tp1028
a(g35
I6036
F47.17
tp1029
a(g37
I4801
F37.52
tp1030
a(g39
I14
F0.11
tp1031
a(g41
I12
F0.09
tp1032
asS'L90'
p1033
(lp1034
(g3
I1281
F8.2
tp1035
a(g5
I102
F0.65
tp1036
a(g7
I100
F0.64
tp1037
a(g9
I90
F0.58
tp1038
a(g11
I61
F0.39
tp1039
a(g13
I24
F0.15
tp1040
a(g15
I473
F3.03
tp1041
a(g17
I165
F1.06
tp1042
a(g19
I174
F1.11
tp1043
a(g21
I308
F1.97
tp1044
a(g23
I21
F0.13
tp1045
a(g25
I12
F0.08
tp1046
a(g27
I21
F0.13
tp1047
a(g29
I7658
F49.04
tp1048
a(g31
I59
F0.38
tp1049
a(g33
I2905
F18.6
tp1050
a(g35
I1353
F8.66
tp1051
a(g37
I782
F5.01
tp1052
a(g39
I1
F0.01
tp1053
a(g41
I17
F0.11
tp1054
asS'L91'
p1055
(lp1056
(g3
I789
F5.06
tp1057
a(g5
I66
F0.42
tp1058
a(g7
I171
F1.1
tp1059
a(g9
I20
F0.13
tp1060
a(g11
I535
F3.43
tp1061
a(g13
I383
F2.45
tp1062
a(g15
I314
F2.01
tp1063
a(g17
I44
F0.28
tp1064
a(g19
I13
F0.08
tp1065
a(g21
I267
F1.71
tp1066
a(g23
I14
F0.09
tp1067
a(g25
I105
F0.67
tp1068
a(g27
I35
F0.22
tp1069
a(g29
I26
F0.17
tp1070
a(g31
I1200
F7.69
tp1071
a(g33
I1466
F9.39
tp1072
a(g35
I328
F2.1
tp1073
a(g37
I73
F0.47
tp1074
a(g39
I3523
F22.57
tp1075
a(g41
I6229
F39.91
tp1076
asS'L92'
p1077
(lp1078
(g3
I729
F4.88
tp1079
a(g5
I21
F0.14
tp1080
a(g7
I5024
F33.64
tp1081
a(g9
I134
F0.9
tp1082
a(g11
I160
F1.07
tp1083
a(g13
I1573
F10.53
tp1084
a(g15
I397
F2.66
tp1085
a(g17
I181
F1.21
tp1086
a(g19
I121
F0.81
tp1087
a(g21
I432
F2.89
tp1088
a(g23
I77
F0.52
tp1089
a(g25
I1667
F11.16
tp1090
a(g27
I17
F0.11
tp1091
a(g29
I29
F0.19
tp1092
a(g31
I115
F0.77
tp1093
a(g33
I805
F5.39
tp1094
a(g35
I1012
F6.78
tp1095
a(g37
I113
F0.76
tp1096
a(g39
I15
F0.1
tp1097
a(g41
I2302
F15.42
tp1098
asS'L93'
p1099
(lp1100
(g3
I198
F1.33
tp1101
a(g5
I12
F0.08
tp1102
a(g7
I1302
F8.74
tp1103
a(g9
I154
F1.03
tp1104
a(g11
I71
F0.48
tp1105
a(g13
I1273
F8.55
tp1106
a(g15
I356
F2.39
tp1107
a(g17
I197
F1.32
tp1108
a(g19
I130
F0.87
tp1109
a(g21
I58
F0.39
tp1110
a(g23
I14
F0.09
tp1111
a(g25
I1816
F12.19
tp1112
a(g27
I60
F0.4
tp1113
a(g29
I505
F3.39
tp1114
a(g31
I546
F3.67
tp1115
a(g33
I6641
F44.59
tp1116
a(g35
I1276
F8.57
tp1117
a(g37
I118
F0.79
tp1118
a(g39
I22
F0.15
tp1119
a(g41
I131
F0.88
tp1120
asS'L98'
p1121
(lp1122
(g3
I0
F0.0
tp1123
a(g5
I5
F0.04
tp1124
a(g7
I0
F0.0
tp1125
a(g9
I1
F0.01
tp1126
a(g11
I12536
F98.21
tp1127
a(g13
I1
F0.01
tp1128
a(g15
I0
F0.0
tp1129
a(g17
I100
F0.78
tp1130
a(g19
I0
F0.0
tp1131
a(g21
I69
F0.54
tp1132
a(g23
I1
F0.01
tp1133
a(g25
I0
F0.0
tp1134
a(g27
I9
F0.07
tp1135
a(g29
I0
F0.0
tp1136
a(g31
I2
F0.02
tp1137
a(g33
I21
F0.16
tp1138
a(g35
I0
F0.0
tp1139
a(g37
I8
F0.06
tp1140
a(g39
I0
F0.0
tp1141
a(g41
I5
F0.04
tp1142
asS'L99'
p1143
(lp1144
(g3
I28
F0.22
tp1145
a(g5
I1
F0.01
tp1146
a(g7
I4
F0.03
tp1147
a(g9
I2
F0.02
tp1148
a(g11
I2
F0.02
tp1149
a(g13
I12696
F99.47
tp1150
a(g15
I0
F0.0
tp1151
a(g17
I0
F0.0
tp1152
a(g19
I0
F0.0
tp1153
a(g21
I1
F0.01
tp1154
a(g23
I0
F0.0
tp1155
a(g25
I0
F0.0
tp1156
a(g27
I3
F0.02
tp1157
a(g29
I0
F0.0
tp1158
a(g31
I4
F0.03
tp1159
a(g33
I7
F0.05
tp1160
a(g35
I0
F0.0
tp1161
a(g37
I9
F0.07
tp1162
a(g39
I4
F0.03
tp1163
a(g41
I0
F0.0
tp1164
asS'L66D'
p1165
(lp1166
(g3
I0
F0.0
tp1167
a(g5
I0
F0.0
tp1168
a(g7
I0
F0.0
tp1169
a(g9
I0
F0.0
tp1170
a(g11
I0
F0.0
tp1171
a(g13
I0
F0.0
tp1172
a(g15
I0
F0.0
tp1173
a(g17
I0
F0.0
tp1174
a(g19
I0
F0.0
tp1175
a(g21
I0
F0.0
tp1176
a(g23
I0
F0.0
tp1177
a(g25
I0
F0.0
tp1178
a(g27
I0
F0.0
tp1179
a(g29
I0
F0.0
tp1180
a(g31
I0
F0.0
tp1181
a(g33
I1
F16.67
tp1182
a(g35
I5
F83.33
tp1183
a(g37
I0
F0.0
tp1184
a(g39
I0
F0.0
tp1185
a(g41
I0
F0.0
tp1186
asS'L66E'
p1187
(lp1188
(g3
I1
F16.67
tp1189
a(g5
I0
F0.0
tp1190
a(g7
I0
F0.0
tp1191
a(g9
I0
F0.0
tp1192
a(g11
I0
F0.0
tp1193
a(g13
I0
F0.0
tp1194
a(g15
I3
F50.0
tp1195
a(g17
I0
F0.0
tp1196
a(g19
I0
F0.0
tp1197
a(g21
I0
F0.0
tp1198
a(g23
I0
F0.0
tp1199
a(g25
I0
F0.0
tp1200
a(g27
I0
F0.0
tp1201
a(g29
I0
F0.0
tp1202
a(g31
I0
F0.0
tp1203
a(g33
I0
F0.0
tp1204
a(g35
I0
F0.0
tp1205
a(g37
I0
F0.0
tp1206
a(g39
I0
F0.0
tp1207
a(g41
I2
F33.33
tp1208
asS'L66F'
p1209
(lp1210
(g3
I2
F33.33
tp1211
a(g5
I0
F0.0
tp1212
a(g7
I0
F0.0
tp1213
a(g9
I0
F0.0
tp1214
a(g11
I0
F0.0
tp1215
a(g13
I0
F0.0
tp1216
a(g15
I0
F0.0
tp1217
a(g17
I0
F0.0
tp1218
a(g19
I0
F0.0
tp1219
a(g21
I0
F0.0
tp1220
a(g23
I0
F0.0
tp1221
a(g25
I0
F0.0
tp1222
a(g27
I0
F0.0
tp1223
a(g29
I0
F0.0
tp1224
a(g31
I0
F0.0
tp1225
a(g33
I1
F16.67
tp1226
a(g35
I3
F50.0
tp1227
a(g37
I0
F0.0
tp1228
a(g39
I0
F0.0
tp1229
a(g41
I0
F0.0
tp1230
asS'L66G'
p1231
(lp1232
(g3
I0
F0.0
tp1233
a(g5
I0
F0.0
tp1234
a(g7
I0
F0.0
tp1235
a(g9
I0
F0.0
tp1236
a(g11
I0
F0.0
tp1237
a(g13
I0
F0.0
tp1238
a(g15
I0
F0.0
tp1239
a(g17
I0
F0.0
tp1240
a(g19
I0
F0.0
tp1241
a(g21
I1
F16.67
tp1242
a(g23
I0
F0.0
tp1243
a(g25
I0
F0.0
tp1244
a(g27
I3
F50.0
tp1245
a(g29
I0
F0.0
tp1246
a(g31
I0
F0.0
tp1247
a(g33
I2
F33.33
tp1248
a(g35
I0
F0.0
tp1249
a(g37
I0
F0.0
tp1250
a(g39
I0
F0.0
tp1251
a(g41
I0
F0.0
tp1252
asS'L66A'
p1253
(lp1254
(g3
I3
F0.63
tp1255
a(g5
I0
F0.0
tp1256
a(g7
I447
F94.3
tp1257
a(g9
I4
F0.84
tp1258
a(g11
I0
F0.0
tp1259
a(g13
I6
F1.27
tp1260
a(g15
I0
F0.0
tp1261
a(g17
I0
F0.0
tp1262
a(g19
I5
F1.05
tp1263
a(g21
I2
F0.42
tp1264
a(g23
I0
F0.0
tp1265
a(g25
I1
F0.21
tp1266
a(g27
I1
F0.21
tp1267
a(g29
I0
F0.0
tp1268
a(g31
I0
F0.0
tp1269
a(g33
I5
F1.05
tp1270
a(g35
I0
F0.0
tp1271
a(g37
I0
F0.0
tp1272
a(g39
I0
F0.0
tp1273
a(g41
I0
F0.0
tp1274
asS'L66B'
p1275
(lp1276
(g3
I129
F27.68
tp1277
a(g5
I1
F0.21
tp1278
a(g7
I2
F0.43
tp1279
a(g9
I0
F0.0
tp1280
a(g11
I2
F0.43
tp1281
a(g13
I8
F1.72
tp1282
a(g15
I0
F0.0
tp1283
a(g17
I9
F1.93
tp1284
a(g19
I0
F0.0
tp1285
a(g21
I0
F0.0
tp1286
a(g23
I1
F0.21
tp1287
a(g25
I2
F0.43
tp1288
a(g27
I0
F0.0
tp1289
a(g29
I1
F0.21
tp1290
a(g31
I29
F6.22
tp1291
a(g33
I239
F51.29
tp1292
a(g35
I28
F6.01
tp1293
a(g37
I8
F1.72
tp1294
a(g39
I1
F0.21
tp1295
a(g41
I6
F1.29
tp1296
asS'L66C'
p1297
(lp1298
(g3
I0
F0.0
tp1299
a(g5
I0
F0.0
tp1300
a(g7
I0
F0.0
tp1301
a(g9
I0
F0.0
tp1302
a(g11
I0
F0.0
tp1303
a(g13
I0
F0.0
tp1304
a(g15
I2
F10.0
tp1305
a(g17
I0
F0.0
tp1306
a(g19
I0
F0.0
tp1307
a(g21
I0
F0.0
tp1308
a(g23
I0
F0.0
tp1309
a(g25
I6
F30.0
tp1310
a(g27
I3
F15.0
tp1311
a(g29
I0
F0.0
tp1312
a(g31
I2
F10.0
tp1313
a(g33
I1
F5.0
tp1314
a(g35
I3
F15.0
tp1315
a(g37
I0
F0.0
tp1316
a(g39
I0
F0.0
tp1317
a(g41
I3
F15.0
tp1318
asS'L66H'
p1319
(lp1320
(g3
I1
F100.0
tp1321
a(g5
I0
F0.0
tp1322
a(g7
I0
F0.0
tp1323
a(g9
I0
F0.0
tp1324
a(g11
I0
F0.0
tp1325
a(g13
I0
F0.0
tp1326
a(g15
I0
F0.0
tp1327
a(g17
I0
F0.0
tp1328
a(g19
I0
F0.0
tp1329
a(g21
I0
F0.0
tp1330
a(g23
I0
F0.0
tp1331
a(g25
I0
F0.0
tp1332
a(g27
I0
F0.0
tp1333
a(g29
I0
F0.0
tp1334
a(g31
I0
F0.0
tp1335
a(g33
I0
F0.0
tp1336
a(g35
I0
F0.0
tp1337
a(g37
I0
F0.0
tp1338
a(g39
I0
F0.0
tp1339
a(g41
I0
F0.0
tp1340
asS'L110'
p1341
(lp1342
(g3
I62
F3.83
tp1343
a(g5
I5
F0.31
tp1344
a(g7
I1
F0.06
tp1345
a(g9
I0
F0.0
tp1346
a(g11
I1
F0.06
tp1347
a(g13
I30
F1.85
tp1348
a(g15
I2
F0.12
tp1349
a(g17
I0
F0.0
tp1350
a(g19
I1
F0.06
tp1351
a(g21
I6
F0.37
tp1352
a(g23
I1
F0.06
tp1353
a(g25
I1
F0.06
tp1354
a(g27
I44
F2.72
tp1355
a(g29
I4
F0.25
tp1356
a(g31
I25
F1.55
tp1357
a(g33
I5
F0.31
tp1358
a(g35
I5
F0.31
tp1359
a(g37
I1412
F87.27
tp1360
a(g39
I5
F0.31
tp1361
a(g41
I8
F0.49
tp1362
asS'L111'
p1363
(lp1364
(g3
I13
F100.0
tp1365
a(g5
I0
F0.0
tp1366
a(g7
I0
F0.0
tp1367
a(g9
I0
F0.0
tp1368
a(g11
I0
F0.0
tp1369
a(g13
I0
F0.0
tp1370
a(g15
I0
F0.0
tp1371
a(g17
I0
F0.0
tp1372
a(g19
I0
F0.0
tp1373
a(g21
I0
F0.0
tp1374
a(g23
I0
F0.0
tp1375
a(g25
I0
F0.0
tp1376
a(g27
I0
F0.0
tp1377
a(g29
I0
F0.0
tp1378
a(g31
I0
F0.0
tp1379
a(g33
I0
F0.0
tp1380
a(g35
I0
F0.0
tp1381
a(g37
I0
F0.0
tp1382
a(g39
I0
F0.0
tp1383
a(g41
I0
F0.0
tp1384
asS'L20'
p1385
(lp1386
(g3
I103
F0.68
tp1387
a(g5
I0
F0.0
tp1388
a(g7
I2
F0.01
tp1389
a(g9
I5
F0.03
tp1390
a(g11
I2
F0.01
tp1391
a(g13
I14
F0.09
tp1392
a(g15
I1
F0.01
tp1393
a(g17
I238
F1.56
tp1394
a(g19
I206
F1.35
tp1395
a(g21
I3
F0.02
tp1396
a(g23
I6
F0.04
tp1397
a(g25
I92
F0.6
tp1398
a(g27
I20
F0.13
tp1399
a(g29
I1
F0.01
tp1400
a(g31
I1129
F7.42
tp1401
a(g33
I1657
F10.89
tp1402
a(g35
I11697
F76.88
tp1403
a(g37
I31
F0.2
tp1404
a(g39
I2
F0.01
tp1405
a(g41
I2
F0.01
tp1406
asS'L21'
p1407
(lp1408
(g3
I1
F0.01
tp1409
a(g5
I0
F0.0
tp1410
a(g7
I1
F0.01
tp1411
a(g9
I0
F0.0
tp1412
a(g11
I145
F0.93
tp1413
a(g13
I0
F0.0
tp1414
a(g15
I0
F0.0
tp1415
a(g17
I11241
F72.4
tp1416
a(g19
I0
F0.0
tp1417
a(g21
I3865
F24.89
tp1418
a(g23
I69
F0.44
tp1419
a(g25
I1
F0.01
tp1420
a(g27
I5
F0.03
tp1421
a(g29
I1
F0.01
tp1422
a(g31
I1
F0.01
tp1423
a(g33
I5
F0.03
tp1424
a(g35
I12
F0.08
tp1425
a(g37
I176
F1.13
tp1426
a(g39
I0
F0.0
tp1427
a(g41
I1
F0.01
tp1428
asS'L39A'
p1429
(lp1430
(g3
I0
F0.0
tp1431
a(g5
I0
F0.0
tp1432
a(g7
I0
F0.0
tp1433
a(g9
I0
F0.0
tp1434
a(g11
I0
F0.0
tp1435
a(g13
I0
F0.0
tp1436
a(g15
I1
F25.0
tp1437
a(g17
I0
F0.0
tp1438
a(g19
I0
F0.0
tp1439
a(g21
I1
F25.0
tp1440
a(g23
I0
F0.0
tp1441
a(g25
I0
F0.0
tp1442
a(g27
I1
F25.0
tp1443
a(g29
I0
F0.0
tp1444
a(g31
I0
F0.0
tp1445
a(g33
I0
F0.0
tp1446
a(g35
I0
F0.0
tp1447
a(g37
I1
F25.0
tp1448
a(g39
I0
F0.0
tp1449
a(g41
I0
F0.0
tp1450
asS'L23'
p1451
(lp1452
(g3
I2
F0.01
tp1453
a(g5
I15741
F99.27
tp1454
a(g7
I2
F0.01
tp1455
a(g9
I0
F0.0
tp1456
a(g11
I2
F0.01
tp1457
a(g13
I10
F0.06
tp1458
a(g15
I1
F0.01
tp1459
a(g17
I1
F0.01
tp1460
a(g19
I0
F0.0
tp1461
a(g21
I14
F0.09
tp1462
a(g23
I0
F0.0
tp1463
a(g25
I3
F0.02
tp1464
a(g27
I4
F0.03
tp1465
a(g29
I24
F0.15
tp1466
a(g31
I8
F0.05
tp1467
a(g33
I20
F0.13
tp1468
a(g35
I1
F0.01
tp1469
a(g37
I4
F0.03
tp1470
a(g39
I2
F0.01
tp1471
a(g41
I14
F0.09
tp1472
asS'L22'
p1473
(lp1474
(g3
I80
F0.5
tp1475
a(g5
I0
F0.0
tp1476
a(g7
I4
F0.03
tp1477
a(g9
I1
F0.01
tp1478
a(g11
I200
F1.26
tp1479
a(g13
I1
F0.01
tp1480
a(g15
I10
F0.06
tp1481
a(g17
I32
F0.2
tp1482
a(g19
I10
F0.06
tp1483
a(g21
I93
F0.59
tp1484
a(g23
I2
F0.01
tp1485
a(g25
I737
F4.65
tp1486
a(g27
I89
F0.56
tp1487
a(g29
I1
F0.01
tp1488
a(g31
I3
F0.02
tp1489
a(g33
I8279
F52.22
tp1490
a(g35
I6246
F39.39
tp1491
a(g37
I1
F0.01
tp1492
a(g39
I0
F0.0
tp1493
a(g41
I61
F0.38
tp1494
asS'L25'
p1495
(lp1496
(g3
I6823
F43.03
tp1497
a(g5
I7
F0.04
tp1498
a(g7
I9
F0.06
tp1499
a(g9
I33
F0.21
tp1500
a(g11
I37
F0.23
tp1501
a(g13
I5854
F36.92
tp1502
a(g15
I12
F0.08
tp1503
a(g17
I14
F0.09
tp1504
a(g19
I3
F0.02
tp1505
a(g21
I462
F2.91
tp1506
a(g23
I18
F0.11
tp1507
a(g25
I10
F0.06
tp1508
a(g27
I123
F0.78
tp1509
a(g29
I2
F0.01
tp1510
a(g31
I259
F1.63
tp1511
a(g33
I1876
F11.83
tp1512
a(g35
I226
F1.43
tp1513
a(g37
I83
F0.52
tp1514
a(g39
I1
F0.01
tp1515
a(g41
I4
F0.03
tp1516
asS'L24'
p1517
(lp1518
(g3
I161
F1.02
tp1519
a(g5
I7
F0.04
tp1520
a(g7
I18
F0.11
tp1521
a(g9
I51
F0.32
tp1522
a(g11
I33
F0.21
tp1523
a(g13
I718
F4.53
tp1524
a(g15
I10
F0.06
tp1525
a(g17
I35
F0.22
tp1526
a(g19
I1079
F6.8
tp1527
a(g21
I16
F0.1
tp1528
a(g23
I14
F0.09
tp1529
a(g25
I29
F0.18
tp1530
a(g27
I7
F0.04
tp1531
a(g29
I788
F4.97
tp1532
a(g31
I7233
F45.62
tp1533
a(g33
I2982
F18.81
tp1534
a(g35
I2613
F16.48
tp1535
a(g37
I16
F0.1
tp1536
a(g39
I37
F0.23
tp1537
a(g41
I1
F0.01
tp1538
asS'L27'
p1539
(lp1540
(g3
I364
F2.3
tp1541
a(g5
I1
F0.01
tp1542
a(g7
I73
F0.46
tp1543
a(g9
I218
F1.37
tp1544
a(g11
I11
F0.07
tp1545
a(g13
I110
F0.69
tp1546
a(g15
I188
F1.19
tp1547
a(g17
I46
F0.29
tp1548
a(g19
I503
F3.17
tp1549
a(g21
I48
F0.3
tp1550
a(g23
I7
F0.04
tp1551
a(g25
I793
F5.0
tp1552
a(g27
I30
F0.19
tp1553
a(g29
I8341
F52.6
tp1554
a(g31
I303
F1.91
tp1555
a(g33
I4300
F27.12
tp1556
a(g35
I440
F2.77
tp1557
a(g37
I33
F0.21
tp1558
a(g39
I3
F0.02
tp1559
a(g41
I36
F0.23
tp1560
asS'L26'
p1561
(lp1562
(g3
I64
F0.4
tp1563
a(g5
I9
F0.06
tp1564
a(g7
I1354
F8.54
tp1565
a(g9
I63
F0.4
tp1566
a(g11
I4
F0.03
tp1567
a(g13
I228
F1.44
tp1568
a(g15
I41
F0.26
tp1569
a(g17
I39
F0.25
tp1570
a(g19
I15
F0.09
tp1571
a(g21
I10
F0.06
tp1572
a(g23
I0
F0.0
tp1573
a(g25
I666
F4.2
tp1574
a(g27
I51
F0.32
tp1575
a(g29
I9
F0.06
tp1576
a(g31
I194
F1.22
tp1577
a(g33
I11509
F72.58
tp1578
a(g35
I1560
F9.84
tp1579
a(g37
I16
F0.1
tp1580
a(g39
I0
F0.0
tp1581
a(g41
I21
F0.13
tp1582
asS'L29'
p1583
(lp1584
(g3
I937
F5.96
tp1585
a(g5
I4
F0.03
tp1586
a(g7
I168
F1.07
tp1587
a(g9
I147
F0.93
tp1588
a(g11
I59
F0.38
tp1589
a(g13
I5036
F32.02
tp1590
a(g15
I18
F0.11
tp1591
a(g17
I3960
F25.18
tp1592
a(g19
I54
F0.34
tp1593
a(g21
I57
F0.36
tp1594
a(g23
I14
F0.09
tp1595
a(g25
I874
F5.56
tp1596
a(g27
I332
F2.11
tp1597
a(g29
I13
F0.08
tp1598
a(g31
I530
F3.37
tp1599
a(g33
I1889
F12.01
tp1600
a(g35
I255
F1.62
tp1601
a(g37
I1332
F8.47
tp1602
a(g39
I8
F0.05
tp1603
a(g41
I36
F0.23
tp1604
asS'L28'
p1605
(lp1606
(g3
I77
F0.5
tp1607
a(g5
I11
F0.07
tp1608
a(g7
I1216
F7.87
tp1609
a(g9
I14
F0.09
tp1610
a(g11
I65
F0.42
tp1611
a(g13
I3167
F20.51
tp1612
a(g15
I228
F1.48
tp1613
a(g17
I2934
F19.0
tp1614
a(g19
I18
F0.12
tp1615
a(g21
I1340
F8.68
tp1616
a(g23
I21
F0.14
tp1617
a(g25
I1303
F8.44
tp1618
a(g27
I16
F0.1
tp1619
a(g29
I2
F0.01
tp1620
a(g31
I60
F0.39
tp1621
a(g33
I2783
F18.02
tp1622
a(g35
I400
F2.59
tp1623
a(g37
I1684
F10.9
tp1624
a(g39
I9
F0.06
tp1625
a(g41
I87
F0.56
tp1626
asS'L43'
p1627
(lp1628
(g3
I11702
F73.8
tp1629
a(g5
I3
F0.02
tp1630
a(g7
I11
F0.07
tp1631
a(g9
I1
F0.01
tp1632
a(g11
I9
F0.06
tp1633
a(g13
I267
F1.68
tp1634
a(g15
I1
F0.01
tp1635
a(g17
I7
F0.04
tp1636
a(g19
I2
F0.01
tp1637
a(g21
I19
F0.12
tp1638
a(g23
I0
F0.0
tp1639
a(g25
I0
F0.0
tp1640
a(g27
I1430
F9.02
tp1641
a(g29
I6
F0.04
tp1642
a(g31
I33
F0.21
tp1643
a(g33
I1707
F10.77
tp1644
a(g35
I220
F1.39
tp1645
a(g37
I436
F2.75
tp1646
a(g39
I0
F0.0
tp1647
a(g41
I0
F0.0
tp1648
asS'L42'
p1649
(lp1650
(g3
I161
F1.02
tp1651
a(g5
I0
F0.0
tp1652
a(g7
I4
F0.03
tp1653
a(g9
I168
F1.06
tp1654
a(g11
I0
F0.0
tp1655
a(g13
I24
F0.15
tp1656
a(g15
I97
F0.61
tp1657
a(g17
I19
F0.12
tp1658
a(g19
I5063
F31.93
tp1659
a(g21
I55
F0.35
tp1660
a(g23
I40
F0.25
tp1661
a(g25
I53
F0.33
tp1662
a(g27
I8
F0.05
tp1663
a(g29
I7079
F44.65
tp1664
a(g31
I355
F2.24
tp1665
a(g33
I466
F2.94
tp1666
a(g35
I2247
F14.17
tp1667
a(g37
I9
F0.06
tp1668
a(g39
I0
F0.0
tp1669
a(g41
I1
F0.01
tp1670
asS'L41'
p1671
(lp1672
(g3
I61
F0.38
tp1673
a(g5
I0
F0.0
tp1674
a(g7
I103
F0.65
tp1675
a(g9
I196
F1.24
tp1676
a(g11
I0
F0.0
tp1677
a(g13
I15335
F96.71
tp1678
a(g15
I15
F0.09
tp1679
a(g17
I0
F0.0
tp1680
a(g19
I8
F0.05
tp1681
a(g21
I3
F0.02
tp1682
a(g23
I0
F0.0
tp1683
a(g25
I16
F0.1
tp1684
a(g27
I9
F0.06
tp1685
a(g29
I12
F0.08
tp1686
a(g31
I67
F0.42
tp1687
a(g33
I18
F0.11
tp1688
a(g35
I6
F0.04
tp1689
a(g37
I7
F0.04
tp1690
a(g39
I0
F0.0
tp1691
a(g41
I0
F0.0
tp1692
asS'L40'
p1693
(lp1694
(g3
I238
F1.5
tp1695
a(g5
I0
F0.0
tp1696
a(g7
I1
F0.01
tp1697
a(g9
I7
F0.04
tp1698
a(g11
I6
F0.04
tp1699
a(g13
I50
F0.32
tp1700
a(g15
I24
F0.15
tp1701
a(g17
I2
F0.01
tp1702
a(g19
I6
F0.04
tp1703
a(g21
I61
F0.38
tp1704
a(g23
I0
F0.0
tp1705
a(g25
I0
F0.0
tp1706
a(g27
I14558
F91.81
tp1707
a(g29
I84
F0.53
tp1708
a(g31
I325
F2.05
tp1709
a(g33
I428
F2.7
tp1710
a(g35
I44
F0.28
tp1711
a(g37
I17
F0.11
tp1712
a(g39
I0
F0.0
tp1713
a(g41
I0
F0.0
tp1714
asS'L47'
p1715
(lp1716
(g3
I5
F0.03
tp1717
a(g5
I0
F0.0
tp1718
a(g7
I0
F0.0
tp1719
a(g9
I0
F0.0
tp1720
a(g11
I41
F0.26
tp1721
a(g13
I0
F0.0
tp1722
a(g15
I1
F0.01
tp1723
a(g17
I629
F3.97
tp1724
a(g19
I2
F0.01
tp1725
a(g21
I11788
F74.34
tp1726
a(g23
I978
F6.17
tp1727
a(g25
I0
F0.0
tp1728
a(g27
I7
F0.04
tp1729
a(g29
I0
F0.0
tp1730
a(g31
I4
F0.03
tp1731
a(g33
I1
F0.01
tp1732
a(g35
I8
F0.05
tp1733
a(g37
I2379
F15.0
tp1734
a(g39
I8
F0.05
tp1735
a(g41
I0
F0.0
tp1736
asS'L46'
p1737
(lp1738
(g3
I101
F0.64
tp1739
a(g5
I6
F0.04
tp1740
a(g7
I0
F0.0
tp1741
a(g9
I5
F0.03
tp1742
a(g11
I218
F1.37
tp1743
a(g13
I5
F0.03
tp1744
a(g15
I14
F0.09
tp1745
a(g17
I74
F0.47
tp1746
a(g19
I5
F0.03
tp1747
a(g21
I13200
F83.25
tp1748
a(g23
I61
F0.38
tp1749
a(g25
I6
F0.04
tp1750
a(g27
I84
F0.53
tp1751
a(g29
I8
F0.05
tp1752
a(g31
I469
F2.96
tp1753
a(g33
I218
F1.37
tp1754
a(g35
I423
F2.67
tp1755
a(g37
I649
F4.09
tp1756
a(g39
I0
F0.0
tp1757
a(g41
I307
F1.94
tp1758
asS'L45'
p1759
(lp1760
(g3
I33
F0.21
tp1761
a(g5
I0
F0.0
tp1762
a(g7
I21
F0.13
tp1763
a(g9
I272
F1.72
tp1764
a(g11
I1
F0.01
tp1765
a(g13
I13
F0.08
tp1766
a(g15
I19
F0.12
tp1767
a(g17
I112
F0.71
tp1768
a(g19
I7805
F49.22
tp1769
a(g21
I110
F0.69
tp1770
a(g23
I31
F0.2
tp1771
a(g25
I313
F1.97
tp1772
a(g27
I9
F0.06
tp1773
a(g29
I831
F5.24
tp1774
a(g31
I4299
F27.11
tp1775
a(g33
I58
F0.37
tp1776
a(g35
I395
F2.49
tp1777
a(g37
I1525
F9.62
tp1778
a(g39
I3
F0.02
tp1779
a(g41
I1
F0.01
tp1780
asS'L44'
p1781
(lp1782
(g3
I8
F0.05
tp1783
a(g5
I0
F0.0
tp1784
a(g7
I0
F0.0
tp1785
a(g9
I0
F0.0
tp1786
a(g11
I0
F0.0
tp1787
a(g13
I0
F0.0
tp1788
a(g15
I2
F0.01
tp1789
a(g17
I2
F0.01
tp1790
a(g19
I1
F0.01
tp1791
a(g21
I22
F0.14
tp1792
a(g23
I0
F0.0
tp1793
a(g25
I1
F0.01
tp1794
a(g27
I15791
F99.59
tp1795
a(g29
I0
F0.0
tp1796
a(g31
I1
F0.01
tp1797
a(g33
I15
F0.09
tp1798
a(g35
I4
F0.03
tp1799
a(g37
I4
F0.03
tp1800
a(g39
I0
F0.0
tp1801
a(g41
I0
F0.0
tp1802
asS'L49'
p1803
(lp1804
(g3
I3
F0.02
tp1805
a(g5
I47
F0.3
tp1806
a(g7
I36
F0.23
tp1807
a(g9
I2
F0.01
tp1808
a(g11
I753
F4.75
tp1809
a(g13
I3
F0.02
tp1810
a(g15
I319
F2.01
tp1811
a(g17
I6
F0.04
tp1812
a(g19
I225
F1.42
tp1813
a(g21
I23
F0.15
tp1814
a(g23
I5
F0.03
tp1815
a(g25
I39
F0.25
tp1816
a(g27
I0
F0.0
tp1817
a(g29
I20
F0.13
tp1818
a(g31
I157
F0.99
tp1819
a(g33
I506
F3.19
tp1820
a(g35
I143
F0.9
tp1821
a(g37
I5
F0.03
tp1822
a(g39
I5
F0.03
tp1823
a(g41
I13556
F85.49
tp1824
asS'L48'
p1825
(lp1826
(g3
I1
F0.01
tp1827
a(g5
I0
F0.0
tp1828
a(g7
I0
F0.0
tp1829
a(g9
I0
F0.0
tp1830
a(g11
I77
F0.49
tp1831
a(g13
I0
F0.0
tp1832
a(g15
I0
F0.0
tp1833
a(g17
I13885
F87.57
tp1834
a(g19
I0
F0.0
tp1835
a(g21
I415
F2.62
tp1836
a(g23
I736
F4.64
tp1837
a(g25
I10
F0.06
tp1838
a(g27
I0
F0.0
tp1839
a(g29
I1
F0.01
tp1840
a(g31
I0
F0.0
tp1841
a(g33
I63
F0.4
tp1842
a(g35
I31
F0.2
tp1843
a(g37
I628
F3.96
tp1844
a(g39
I0
F0.0
tp1845
a(g41
I3
F0.02
tp1846
asS'L109'
p1847
(lp1848
(g3
I151
F3.98
tp1849
a(g5
I1
F0.03
tp1850
a(g7
I3
F0.08
tp1851
a(g9
I26
F0.68
tp1852
a(g11
I1
F0.03
tp1853
a(g13
I17
F0.45
tp1854
a(g15
I5
F0.13
tp1855
a(g17
I14
F0.37
tp1856
a(g19
I49
F1.29
tp1857
a(g21
I9
F0.24
tp1858
a(g23
I0
F0.0
tp1859
a(g25
I6
F0.16
tp1860
a(g27
I1588
F41.82
tp1861
a(g29
I42
F1.11
tp1862
a(g31
I10
F0.26
tp1863
a(g33
I44
F1.16
tp1864
a(g35
I1787
F47.06
tp1865
a(g37
I32
F0.84
tp1866
a(g39
I8
F0.21
tp1867
a(g41
I4
F0.11
tp1868
asS'L108'
p1869
(lp1870
(g3
I87
F1.75
tp1871
a(g5
I0
F0.0
tp1872
a(g7
I4
F0.08
tp1873
a(g9
I11
F0.22
tp1874
a(g11
I1
F0.02
tp1875
a(g13
I85
F1.71
tp1876
a(g15
I3
F0.06
tp1877
a(g17
I26
F0.52
tp1878
a(g19
I21
F0.42
tp1879
a(g21
I20
F0.4
tp1880
a(g23
I1
F0.02
tp1881
a(g25
I3
F0.06
tp1882
a(g27
I14
F0.28
tp1883
a(g29
I1628
F32.84
tp1884
a(g31
I2977
F60.04
tp1885
a(g33
I14
F0.28
tp1886
a(g35
I53
F1.07
tp1887
a(g37
I5
F0.1
tp1888
a(g39
I1
F0.02
tp1889
a(g41
I1
F0.02
tp1890
asS'L101'
p1891
(lp1892
(g3
I20
F0.17
tp1893
a(g5
I0
F0.0
tp1894
a(g7
I1
F0.01
tp1895
a(g9
I5
F0.04
tp1896
a(g11
I3
F0.02
tp1897
a(g13
I12020
F99.42
tp1898
a(g15
I0
F0.0
tp1899
a(g17
I0
F0.0
tp1900
a(g19
I1
F0.01
tp1901
a(g21
I0
F0.0
tp1902
a(g23
I1
F0.01
tp1903
a(g25
I0
F0.0
tp1904
a(g27
I0
F0.0
tp1905
a(g29
I1
F0.01
tp1906
a(g31
I18
F0.15
tp1907
a(g33
I5
F0.04
tp1908
a(g35
I1
F0.01
tp1909
a(g37
I8
F0.07
tp1910
a(g39
I3
F0.02
tp1911
a(g41
I0
F0.0
tp1912
asS'L100'
p1913
(lp1914
(g3
I78
F0.63
tp1915
a(g5
I3
F0.02
tp1916
a(g7
I2
F0.02
tp1917
a(g9
I22
F0.18
tp1918
a(g11
I0
F0.0
tp1919
a(g13
I5084
F41.33
tp1920
a(g15
I54
F0.44
tp1921
a(g17
I11
F0.09
tp1922
a(g19
I5
F0.04
tp1923
a(g21
I160
F1.3
tp1924
a(g23
I0
F0.0
tp1925
a(g25
I9
F0.07
tp1926
a(g27
I930
F7.56
tp1927
a(g29
I4202
F34.16
tp1928
a(g31
I129
F1.05
tp1929
a(g33
I178
F1.45
tp1930
a(g35
I1415
F11.5
tp1931
a(g37
I10
F0.08
tp1932
a(g39
I0
F0.0
tp1933
a(g41
I0
F0.0
tp1934
asS'L103'
p1935
(lp1936
(g3
I82
F0.69
tp1937
a(g5
I0
F0.0
tp1938
a(g7
I9
F0.08
tp1939
a(g9
I88
F0.74
tp1940
a(g11
I1
F0.01
tp1941
a(g13
I9
F0.08
tp1942
a(g15
I14
F0.12
tp1943
a(g17
I3
F0.03
tp1944
a(g19
I10161
F85.27
tp1945
a(g21
I4
F0.03
tp1946
a(g23
I31
F0.26
tp1947
a(g25
I92
F0.77
tp1948
a(g27
I4
F0.03
tp1949
a(g29
I235
F1.97
tp1950
a(g31
I981
F8.23
tp1951
a(g33
I17
F0.14
tp1952
a(g35
I168
F1.41
tp1953
a(g37
I5
F0.04
tp1954
a(g39
I2
F0.02
tp1955
a(g41
I3
F0.03
tp1956
asS'L102'
p1957
(lp1958
(g3
I44
F0.37
tp1959
a(g5
I0
F0.0
tp1960
a(g7
I1
F0.01
tp1961
a(g9
I0
F0.0
tp1962
a(g11
I0
F0.0
tp1963
a(g13
I2
F0.02
tp1964
a(g15
I4
F0.03
tp1965
a(g17
I4
F0.03
tp1966
a(g19
I2
F0.02
tp1967
a(g21
I2
F0.02
tp1968
a(g23
I1
F0.01
tp1969
a(g25
I6
F0.05
tp1970
a(g27
I16
F0.13
tp1971
a(g29
I0
F0.0
tp1972
a(g31
I0
F0.0
tp1973
a(g33
I63
F0.53
tp1974
a(g35
I11845
F98.72
tp1975
a(g37
I2
F0.02
tp1976
a(g39
I0
F0.0
tp1977
a(g41
I3
F0.03
tp1978
asS'L105'
p1979
(lp1980
(g3
I55
F0.48
tp1981
a(g5
I0
F0.0
tp1982
a(g7
I1042
F9.02
tp1983
a(g9
I5148
F44.59
tp1984
a(g11
I2
F0.02
tp1985
a(g13
I40
F0.35
tp1986
a(g15
I12
F0.1
tp1987
a(g17
I38
F0.33
tp1988
a(g19
I9
F0.08
tp1989
a(g21
I10
F0.09
tp1990
a(g23
I0
F0.0
tp1991
a(g25
I16
F0.14
tp1992
a(g27
I9
F0.08
tp1993
a(g29
I95
F0.82
tp1994
a(g31
I6
F0.05
tp1995
a(g33
I68
F0.59
tp1996
a(g35
I4960
F42.96
tp1997
a(g37
I27
F0.23
tp1998
a(g39
I3
F0.03
tp1999
a(g41
I0
F0.0
tp2000
asS'L104'
p2001
(lp2002
(g3
I22
F0.19
tp2003
a(g5
I0
F0.0
tp2004
a(g7
I1
F0.01
tp2005
a(g9
I6
F0.05
tp2006
a(g11
I3
F0.03
tp2007
a(g13
I9
F0.08
tp2008
a(g15
I1
F0.01
tp2009
a(g17
I37
F0.31
tp2010
a(g19
I1
F0.01
tp2011
a(g21
I5572
F47.32
tp2012
a(g23
I8
F0.07
tp2013
a(g25
I1
F0.01
tp2014
a(g27
I9
F0.08
tp2015
a(g29
I0
F0.0
tp2016
a(g31
I7
F0.06
tp2017
a(g33
I7
F0.06
tp2018
a(g35
I2
F0.02
tp2019
a(g37
I6067
F51.52
tp2020
a(g39
I12
F0.1
tp2021
a(g41
I1
F0.01
tp2022
asS'L107'
p2023
(lp2024
(g3
I9
F0.1
tp2025
a(g5
I3
F0.03
tp2026
a(g7
I28
F0.33
tp2027
a(g9
I38
F0.44
tp2028
a(g11
I2
F0.02
tp2029
a(g13
I2005
F23.34
tp2030
a(g15
I11
F0.13
tp2031
a(g17
I20
F0.23
tp2032
a(g19
I5544
F64.54
tp2033
a(g21
I2
F0.02
tp2034
a(g23
I5
F0.06
tp2035
a(g25
I118
F1.37
tp2036
a(g27
I34
F0.4
tp2037
a(g29
I56
F0.65
tp2038
a(g31
I347
F4.04
tp2039
a(g33
I267
F3.11
tp2040
a(g35
I41
F0.48
tp2041
a(g37
I51
F0.59
tp2042
a(g39
I2
F0.02
tp2043
a(g41
I1
F0.01
tp2044
asS'L106'
p2045
(lp2046
(g3
I24
F0.21
tp2047
a(g5
I3
F0.03
tp2048
a(g7
I13
F0.11
tp2049
a(g9
I3
F0.03
tp2050
a(g11
I90
F0.8
tp2051
a(g13
I5
F0.04
tp2052
a(g15
I1
F0.01
tp2053
a(g17
I5473
F48.35
tp2054
a(g19
I6
F0.05
tp2055
a(g21
I168
F1.48
tp2056
a(g23
I200
F1.77
tp2057
a(g25
I19
F0.17
tp2058
a(g27
I3
F0.03
tp2059
a(g29
I1
F0.01
tp2060
a(g31
I39
F0.34
tp2061
a(g33
I34
F0.3
tp2062
a(g35
I46
F0.41
tp2063
a(g37
I5183
F45.79
tp2064
a(g39
I0
F0.0
tp2065
a(g41
I3
F0.03
tp2066
asS'L95B'
p2067
(lp2068
(g3
I769
F13.52
tp2069
a(g5
I26
F0.46
tp2070
a(g7
I62
F1.09
tp2071
a(g9
I71
F1.25
tp2072
a(g11
I243
F4.27
tp2073
a(g13
I1218
F21.41
tp2074
a(g15
I713
F12.53
tp2075
a(g17
I71
F1.25
tp2076
a(g19
I23
F0.4
tp2077
a(g21
I340
F5.98
tp2078
a(g23
I36
F0.63
tp2079
a(g25
I58
F1.02
tp2080
a(g27
I147
F2.58
tp2081
a(g29
I84
F1.48
tp2082
a(g31
I159
F2.79
tp2083
a(g33
I214
F3.76
tp2084
a(g35
I821
F14.43
tp2085
a(g37
I319
F5.61
tp2086
a(g39
I85
F1.49
tp2087
a(g41
I227
F3.99
tp2088
asS'L95C'
p2089
(lp2090
(g3
I59
F2.19
tp2091
a(g5
I17
F0.63
tp2092
a(g7
I32
F1.19
tp2093
a(g9
I15
F0.56
tp2094
a(g11
I508
F18.88
tp2095
a(g13
I603
F22.42
tp2096
a(g15
I66
F2.45
tp2097
a(g17
I29
F1.08
tp2098
a(g19
I7
F0.26
tp2099
a(g21
I210
F7.81
tp2100
a(g23
I13
F0.48
tp2101
a(g25
I32
F1.19
tp2102
a(g27
I199
F7.4
tp2103
a(g29
I15
F0.56
tp2104
a(g31
I70
F2.6
tp2105
a(g33
I170
F6.32
tp2106
a(g35
I211
F7.84
tp2107
a(g37
I271
F10.07
tp2108
a(g39
I81
F3.01
tp2109
a(g41
I80
F2.97
tp2110
asS'L95A'
p2111
(lp2112
(g3
I196
F2.36
tp2113
a(g5
I18
F0.22
tp2114
a(g7
I511
F6.14
tp2115
a(g9
I61
F0.73
tp2116
a(g11
I100
F1.2
tp2117
a(g13
I307
F3.69
tp2118
a(g15
I195
F2.34
tp2119
a(g17
I192
F2.31
tp2120
a(g19
I80
F0.96
tp2121
a(g21
I364
F4.38
tp2122
a(g23
I65
F0.78
tp2123
a(g25
I1126
F13.54
tp2124
a(g27
I1166
F14.02
tp2125
a(g29
I117
F1.41
tp2126
a(g31
I450
F5.41
tp2127
a(g33
I1752
F21.06
tp2128
a(g35
I1151
F13.84
tp2129
a(g37
I130
F1.56
tp2130
a(g39
I114
F1.37
tp2131
a(g41
I223
F2.68
tp2132
asS'L95F'
p2133
(lp2134
(g3
I5
F3.88
tp2135
a(g5
I0
F0.0
tp2136
a(g7
I4
F3.1
tp2137
a(g9
I13
F10.08
tp2138
a(g11
I28
F21.71
tp2139
a(g13
I18
F13.95
tp2140
a(g15
I1
F0.78
tp2141
a(g17
I2
F1.55
tp2142
a(g19
I0
F0.0
tp2143
a(g21
I4
F3.1
tp2144
a(g23
I1
F0.78
tp2145
a(g25
I0
F0.0
tp2146
a(g27
I2
F1.55
tp2147
a(g29
I2
F1.55
tp2148
a(g31
I9
F6.98
tp2149
a(g33
I21
F16.28
tp2150
a(g35
I3
F2.33
tp2151
a(g37
I12
F9.3
tp2152
a(g39
I1
F0.78
tp2153
a(g41
I1
F0.78
tp2154
asS'L95D'
p2155
(lp2156
(g3
I45
F4.84
tp2157
a(g5
I9
F0.97
tp2158
a(g7
I19
F2.05
tp2159
a(g9
I8
F0.86
tp2160
a(g11
I200
F21.53
tp2161
a(g13
I50
F5.38
tp2162
a(g15
I14
F1.51
tp2163
a(g17
I20
F2.15
tp2164
a(g19
I8
F0.86
tp2165
a(g21
I45
F4.84
tp2166
a(g23
I6
F0.65
tp2167
a(g25
I16
F1.72
tp2168
a(g27
I12
F1.29
tp2169
a(g29
I4
F0.43
tp2170
a(g31
I35
F3.77
tp2171
a(g33
I46
F4.95
tp2172
a(g35
I36
F3.88
tp2173
a(g37
I297
F31.97
tp2174
a(g39
I41
F4.41
tp2175
a(g41
I17
F1.83
tp2176
asS'L95E'
p2177
(lp2178
(g3
I27
F7.46
tp2179
a(g5
I5
F1.38
tp2180
a(g7
I1
F0.28
tp2181
a(g9
I6
F1.66
tp2182
a(g11
I146
F40.33
tp2183
a(g13
I12
F3.31
tp2184
a(g15
I1
F0.28
tp2185
a(g17
I8
F2.21
tp2186
a(g19
I2
F0.55
tp2187
a(g21
I17
F4.7
tp2188
a(g23
I2
F0.55
tp2189
a(g25
I1
F0.28
tp2190
a(g27
I9
F2.49
tp2191
a(g29
I5
F1.38
tp2192
a(g31
I18
F4.97
tp2193
a(g33
I18
F4.97
tp2194
a(g35
I1
F0.28
tp2195
a(g37
I59
F16.3
tp2196
a(g39
I9
F2.49
tp2197
a(g41
I15
F4.14
tp2198
asS'L36'
p2199
(lp2200
(g3
I0
F0.0
tp2201
a(g5
I31
F0.2
tp2202
a(g7
I2
F0.01
tp2203
a(g9
I1
F0.01
tp2204
a(g11
I1078
F6.8
tp2205
a(g13
I0
F0.0
tp2206
a(g15
I255
F1.61
tp2207
a(g17
I45
F0.28
tp2208
a(g19
I0
F0.0
tp2209
a(g21
I159
F1.0
tp2210
a(g23
I1
F0.01
tp2211
a(g25
I11
F0.07
tp2212
a(g27
I2
F0.01
tp2213
a(g29
I1
F0.01
tp2214
a(g31
I1
F0.01
tp2215
a(g33
I5
F0.03
tp2216
a(g35
I1
F0.01
tp2217
a(g37
I7
F0.04
tp2218
a(g39
I3
F0.02
tp2219
a(g41
I14245
F89.84
tp2220
asS'L37'
p2221
(lp2222
(g3
I1
F0.01
tp2223
a(g5
I0
F0.0
tp2224
a(g7
I1
F0.01
tp2225
a(g9
I10
F0.06
tp2226
a(g11
I0
F0.0
tp2227
a(g13
I0
F0.0
tp2228
a(g15
I194
F1.22
tp2229
a(g17
I0
F0.0
tp2230
a(g19
I29
F0.18
tp2231
a(g21
I614
F3.87
tp2232
a(g23
I2
F0.01
tp2233
a(g25
I4
F0.03
tp2234
a(g27
I2
F0.01
tp2235
a(g29
I14570
F91.89
tp2236
a(g31
I366
F2.31
tp2237
a(g33
I13
F0.08
tp2238
a(g35
I1
F0.01
tp2239
a(g37
I37
F0.23
tp2240
a(g39
I0
F0.0
tp2241
a(g41
I5
F0.03
tp2242
asS'L34'
p2243
(lp2244
(g3
I5701
F35.95
tp2245
a(g5
I391
F2.47
tp2246
a(g7
I468
F2.95
tp2247
a(g9
I62
F0.39
tp2248
a(g11
I76
F0.48
tp2249
a(g13
I313
F1.97
tp2250
a(g15
I1148
F7.24
tp2251
a(g17
I40
F0.25
tp2252
a(g19
I12
F0.08
tp2253
a(g21
I26
F0.16
tp2254
a(g23
I12
F0.08
tp2255
a(g25
I2576
F16.25
tp2256
a(g27
I12
F0.08
tp2257
a(g29
I356
F2.25
tp2258
a(g31
I37
F0.23
tp2259
a(g33
I3189
F20.11
tp2260
a(g35
I295
F1.86
tp2261
a(g37
I108
F0.68
tp2262
a(g39
I7
F0.04
tp2263
a(g41
I1021
F6.44
tp2264
asS'L35'
p2265
(lp2266
(g3
I1
F0.01
tp2267
a(g5
I12
F0.08
tp2268
a(g7
I0
F0.0
tp2269
a(g9
I1
F0.01
tp2270
a(g11
I1
F0.01
tp2271
a(g13
I6
F0.04
tp2272
a(g15
I0
F0.0
tp2273
a(g17
I0
F0.0
tp2274
a(g19
I0
F0.0
tp2275
a(g21
I1
F0.01
tp2276
a(g23
I0
F0.0
tp2277
a(g25
I1
F0.01
tp2278
a(g27
I0
F0.0
tp2279
a(g29
I0
F0.0
tp2280
a(g31
I19
F0.12
tp2281
a(g33
I1
F0.01
tp2282
a(g35
I0
F0.0
tp2283
a(g37
I0
F0.0
tp2284
a(g39
I15807
F99.69
tp2285
a(g41
I0
F0.0
tp2286
asS'L32'
p2287
(lp2288
(g3
I417
F2.63
tp2289
a(g5
I58
F0.37
tp2290
a(g7
I842
F5.31
tp2291
a(g9
I126
F0.79
tp2292
a(g11
I896
F5.65
tp2293
a(g13
I130
F0.82
tp2294
a(g15
I388
F2.45
tp2295
a(g17
I64
F0.4
tp2296
a(g19
I66
F0.42
tp2297
a(g21
I273
F1.72
tp2298
a(g23
I9
F0.06
tp2299
a(g25
I886
F5.59
tp2300
a(g27
I50
F0.32
tp2301
a(g29
I31
F0.2
tp2302
a(g31
I214
F1.35
tp2303
a(g33
I1235
F7.79
tp2304
a(g35
I461
F2.91
tp2305
a(g37
I32
F0.2
tp2306
a(g39
I875
F5.52
tp2307
a(g41
I8795
F55.47
tp2308
asS'L33'
p2309
(lp2310
(g3
I1074
F6.77
tp2311
a(g5
I3
F0.02
tp2312
a(g7
I1
F0.01
tp2313
a(g9
I2
F0.01
tp2314
a(g11
I78
F0.49
tp2315
a(g13
I31
F0.2
tp2316
a(g15
I0
F0.0
tp2317
a(g17
I532
F3.36
tp2318
a(g19
I0
F0.0
tp2319
a(g21
I8458
F53.34
tp2320
a(g23
I70
F0.44
tp2321
a(g25
I1
F0.01
tp2322
a(g27
I250
F1.58
tp2323
a(g29
I1
F0.01
tp2324
a(g31
I1
F0.01
tp2325
a(g33
I31
F0.2
tp2326
a(g35
I82
F0.52
tp2327
a(g37
I5238
F33.03
tp2328
a(g39
I0
F0.0
tp2329
a(g41
I1
F0.01
tp2330
asS'L30'
p2331
(lp2332
(g3
I184
F1.16
tp2333
a(g5
I12
F0.08
tp2334
a(g7
I742
F4.69
tp2335
a(g9
I90
F0.57
tp2336
a(g11
I104
F0.66
tp2337
a(g13
I1373
F8.68
tp2338
a(g15
I100
F0.63
tp2339
a(g17
I139
F0.88
tp2340
a(g19
I1410
F8.92
tp2341
a(g21
I47
F0.3
tp2342
a(g23
I10
F0.06
tp2343
a(g25
I1900
F12.02
tp2344
a(g27
I33
F0.21
tp2345
a(g29
I59
F0.37
tp2346
a(g31
I680
F4.3
tp2347
a(g33
I6355
F40.19
tp2348
a(g35
I654
F4.14
tp2349
a(g37
I135
F0.85
tp2350
a(g39
I10
F0.06
tp2351
a(g41
I1767
F11.17
tp2352
asS'L31'
p2353
(lp2354
(g3
I61
F0.39
tp2355
a(g5
I4
F0.03
tp2356
a(g7
I438
F2.77
tp2357
a(g9
I80
F0.51
tp2358
a(g11
I97
F0.61
tp2359
a(g13
I231
F1.46
tp2360
a(g15
I305
F1.93
tp2361
a(g17
I221
F1.4
tp2362
a(g19
I1381
F8.72
tp2363
a(g21
I44
F0.28
tp2364
a(g23
I20
F0.13
tp2365
a(g25
I6232
F39.37
tp2366
a(g27
I18
F0.11
tp2367
a(g29
I267
F1.69
tp2368
a(g31
I395
F2.5
tp2369
a(g33
I3329
F21.03
tp2370
a(g35
I1277
F8.07
tp2371
a(g37
I41
F0.26
tp2372
a(g39
I1
F0.01
tp2373
a(g41
I1381
F8.72
tp2374
asS'L38'
p2375
(lp2376
(g3
I1
F0.01
tp2377
a(g5
I2
F0.01
tp2378
a(g7
I6
F0.04
tp2379
a(g9
I33
F0.21
tp2380
a(g11
I7
F0.04
tp2381
a(g13
I3
F0.02
tp2382
a(g15
I771
F4.86
tp2383
a(g17
I2
F0.01
tp2384
a(g19
I327
F2.06
tp2385
a(g21
I176
F1.11
tp2386
a(g23
I2
F0.01
tp2387
a(g25
I2
F0.01
tp2388
a(g27
I5
F0.03
tp2389
a(g29
I14236
F89.78
tp2390
a(g31
I109
F0.69
tp2391
a(g33
I2
F0.01
tp2392
a(g35
I3
F0.02
tp2393
a(g37
I125
F0.79
tp2394
a(g39
I10
F0.06
tp2395
a(g41
I27
F0.17
tp2396
asS'L39'
p2397
(lp2398
(g3
I9
F0.06
tp2399
a(g5
I2
F0.01
tp2400
a(g7
I5
F0.03
tp2401
a(g9
I48
F0.3
tp2402
a(g11
I292
F1.84
tp2403
a(g13
I11
F0.07
tp2404
a(g15
I1295
F8.17
tp2405
a(g17
I62
F0.39
tp2406
a(g19
I9751
F61.54
tp2407
a(g21
I1913
F12.07
tp2408
a(g23
I18
F0.11
tp2409
a(g25
I48
F0.3
tp2410
a(g27
I54
F0.34
tp2411
a(g29
I298
F1.88
tp2412
a(g31
I1539
F9.71
tp2413
a(g33
I30
F0.19
tp2414
a(g35
I159
F1.0
tp2415
a(g37
I216
F1.36
tp2416
a(g39
I0
F0.0
tp2417
a(g41
I91
F0.57
tp2418
asS'L50'
p2419
(lp2420
(g3
I2218
F13.99
tp2421
a(g5
I5
F0.03
tp2422
a(g7
I3062
F19.31
tp2423
a(g9
I2053
F12.95
tp2424
a(g11
I31
F0.2
tp2425
a(g13
I3136
F19.78
tp2426
a(g15
I59
F0.37
tp2427
a(g17
I33
F0.21
tp2428
a(g19
I1057
F6.67
tp2429
a(g21
I534
F3.37
tp2430
a(g23
I14
F0.09
tp2431
a(g25
I204
F1.29
tp2432
a(g27
I25
F0.16
tp2433
a(g29
I547
F3.45
tp2434
a(g31
I523
F3.3
tp2435
a(g33
I799
F5.04
tp2436
a(g35
I190
F1.2
tp2437
a(g37
I183
F1.15
tp2438
a(g39
I763
F4.81
tp2439
a(g41
I412
F2.6
tp2440
asS'L51'
p2441
(lp2442
(g3
I6989
F44.08
tp2443
a(g5
I3
F0.02
tp2444
a(g7
I1899
F11.98
tp2445
a(g9
I84
F0.53
tp2446
a(g11
I16
F0.1
tp2447
a(g13
I639
F4.03
tp2448
a(g15
I50
F0.32
tp2449
a(g17
I107
F0.67
tp2450
a(g19
I441
F2.78
tp2451
a(g21
I42
F0.26
tp2452
a(g23
I12
F0.08
tp2453
a(g25
I2338
F14.75
tp2454
a(g27
I16
F0.1
tp2455
a(g29
I10
F0.06
tp2456
a(g31
I29
F0.18
tp2457
a(g33
I245
F1.55
tp2458
a(g35
I1004
F6.33
tp2459
a(g37
I1890
F11.92
tp2460
a(g39
I0
F0.0
tp2461
a(g41
I38
F0.24
tp2462
asS'L52'
p2463
(lp2464
(g3
I78
F0.49
tp2465
a(g5
I6
F0.04
tp2466
a(g7
I533
F3.36
tp2467
a(g9
I7
F0.04
tp2468
a(g11
I123
F0.78
tp2469
a(g13
I95
F0.6
tp2470
a(g15
I61
F0.38
tp2471
a(g17
I88
F0.55
tp2472
a(g19
I63
F0.4
tp2473
a(g21
I21
F0.13
tp2474
a(g23
I10
F0.06
tp2475
a(g25
I2547
F16.06
tp2476
a(g27
I12
F0.08
tp2477
a(g29
I22
F0.14
tp2478
a(g31
I94
F0.59
tp2479
a(g33
I10873
F68.57
tp2480
a(g35
I880
F5.55
tp2481
a(g37
I35
F0.22
tp2482
a(g39
I5
F0.03
tp2483
a(g41
I297
F1.87
tp2484
asS'L53'
p2485
(lp2486
(g3
I78
F0.49
tp2487
a(g5
I4
F0.03
tp2488
a(g7
I888
F5.6
tp2489
a(g9
I552
F3.48
tp2490
a(g11
I42
F0.26
tp2491
a(g13
I102
F0.64
tp2492
a(g15
I147
F0.93
tp2493
a(g17
I200
F1.26
tp2494
a(g19
I2205
F13.91
tp2495
a(g21
I85
F0.54
tp2496
a(g23
I40
F0.25
tp2497
a(g25
I3637
F22.94
tp2498
a(g27
I6
F0.04
tp2499
a(g29
I1291
F8.14
tp2500
a(g31
I702
F4.43
tp2501
a(g33
I3099
F19.55
tp2502
a(g35
I2557
F16.13
tp2503
a(g37
I57
F0.36
tp2504
a(g39
I3
F0.02
tp2505
a(g41
I150
F0.95
tp2506
asS'L54'
p2507
(lp2508
(g3
I3
F0.02
tp2509
a(g5
I4
F0.03
tp2510
a(g7
I1
F0.01
tp2511
a(g9
I3
F0.02
tp2512
a(g11
I18
F0.11
tp2513
a(g13
I261
F1.65
tp2514
a(g15
I4
F0.03
tp2515
a(g17
I3
F0.02
tp2516
a(g19
I180
F1.14
tp2517
a(g21
I3948
F24.92
tp2518
a(g23
I4
F0.03
tp2519
a(g25
I7
F0.04
tp2520
a(g27
I5
F0.03
tp2521
a(g29
I17
F0.11
tp2522
a(g31
I11108
F70.12
tp2523
a(g33
I197
F1.24
tp2524
a(g35
I19
F0.12
tp2525
a(g37
I22
F0.14
tp2526
a(g39
I38
F0.24
tp2527
a(g41
I0
F0.0
tp2528
asS'L55'
p2529
(lp2530
(g3
I3735
F23.56
tp2531
a(g5
I2
F0.01
tp2532
a(g7
I316
F1.99
tp2533
a(g9
I1700
F10.72
tp2534
a(g11
I239
F1.51
tp2535
a(g13
I398
F2.51
tp2536
a(g15
I294
F1.85
tp2537
a(g17
I26
F0.16
tp2538
a(g19
I71
F0.45
tp2539
a(g21
I79
F0.5
tp2540
a(g23
I2
F0.01
tp2541
a(g25
I14
F0.09
tp2542
a(g27
I6085
F38.38
tp2543
a(g29
I2533
F15.98
tp2544
a(g31
I55
F0.35
tp2545
a(g33
I142
F0.9
tp2546
a(g35
I19
F0.12
tp2547
a(g37
I56
F0.35
tp2548
a(g39
I2
F0.01
tp2549
a(g41
I80
F0.5
tp2550
asS'L56'
p2551
(lp2552
(g3
I254
F1.6
tp2553
a(g5
I2
F0.01
tp2554
a(g7
I239
F1.51
tp2555
a(g9
I7
F0.04
tp2556
a(g11
I32
F0.2
tp2557
a(g13
I128
F0.81
tp2558
a(g15
I11
F0.07
tp2559
a(g17
I49
F0.31
tp2560
a(g19
I17
F0.11
tp2561
a(g21
I40
F0.25
tp2562
a(g23
I3
F0.02
tp2563
a(g25
I71
F0.45
tp2564
a(g27
I260
F1.64
tp2565
a(g29
I2
F0.01
tp2566
a(g31
I82
F0.52
tp2567
a(g33
I11514
F72.62
tp2568
a(g35
I3103
F19.57
tp2569
a(g37
I13
F0.08
tp2570
a(g39
I4
F0.03
tp2571
a(g41
I20
F0.13
tp2572
asS'L57'
p2573
(lp2574
(g3
I36
F0.23
tp2575
a(g5
I0
F0.0
tp2576
a(g7
I150
F0.95
tp2577
a(g9
I73
F0.46
tp2578
a(g11
I0
F0.0
tp2579
a(g13
I15247
F96.16
tp2580
a(g15
I1
F0.01
tp2581
a(g17
I0
F0.0
tp2582
a(g19
I3
F0.02
tp2583
a(g21
I5
F0.03
tp2584
a(g23
I0
F0.0
tp2585
a(g25
I28
F0.18
tp2586
a(g27
I3
F0.02
tp2587
a(g29
I15
F0.09
tp2588
a(g31
I45
F0.28
tp2589
a(g33
I15
F0.09
tp2590
a(g35
I5
F0.03
tp2591
a(g37
I15
F0.09
tp2592
a(g39
I207
F1.31
tp2593
a(g41
I4
F0.03
tp2594
asS'L58'
p2595
(lp2596
(g3
I54
F0.34
tp2597
a(g5
I2
F0.01
tp2598
a(g7
I8
F0.05
tp2599
a(g9
I0
F0.0
tp2600
a(g11
I35
F0.22
tp2601
a(g13
I7
F0.04
tp2602
a(g15
I0
F0.0
tp2603
a(g17
I5839
F36.83
tp2604
a(g19
I0
F0.0
tp2605
a(g21
I25
F0.16
tp2606
a(g23
I6
F0.04
tp2607
a(g25
I2
F0.01
tp2608
a(g27
I0
F0.0
tp2609
a(g29
I0
F0.0
tp2610
a(g31
I1
F0.01
tp2611
a(g33
I6
F0.04
tp2612
a(g35
I383
F2.42
tp2613
a(g37
I9487
F59.83
tp2614
a(g39
I0
F0.0
tp2615
a(g41
I0
F0.0
tp2616
asS'L59'
p2617
(lp2618
(g3
I42
F0.26
tp2619
a(g5
I3
F0.02
tp2620
a(g7
I0
F0.0
tp2621
a(g9
I1
F0.01
tp2622
a(g11
I7
F0.04
tp2623
a(g13
I0
F0.0
tp2624
a(g15
I10
F0.06
tp2625
a(g17
I0
F0.0
tp2626
a(g19
I0
F0.0
tp2627
a(g21
I20
F0.13
tp2628
a(g23
I0
F0.0
tp2629
a(g25
I0
F0.0
tp2630
a(g27
I14518
F91.56
tp2631
a(g29
I2
F0.01
tp2632
a(g31
I4
F0.03
tp2633
a(g33
I1215
F7.66
tp2634
a(g35
I31
F0.2
tp2635
a(g37
I0
F0.0
tp2636
a(g39
I0
F0.0
tp2637
a(g41
I0
F0.0
tp2638
asS'L65'
p2639
(lp2640
(g3
I60
F0.38
tp2641
a(g5
I5
F0.03
tp2642
a(g7
I10
F0.06
tp2643
a(g9
I2
F0.01
tp2644
a(g11
I24
F0.15
tp2645
a(g13
I176
F1.11
tp2646
a(g15
I6
F0.04
tp2647
a(g17
I7
F0.04
tp2648
a(g19
I1
F0.01
tp2649
a(g21
I25
F0.16
tp2650
a(g23
I0
F0.0
tp2651
a(g25
I25
F0.16
tp2652
a(g27
I11
F0.07
tp2653
a(g29
I1
F0.01
tp2654
a(g31
I118
F0.74
tp2655
a(g33
I15246
F96.15
tp2656
a(g35
I100
F0.63
tp2657
a(g37
I4
F0.03
tp2658
a(g39
I2
F0.01
tp2659
a(g41
I29
F0.18
tp2660
asS'L64'
p2661
(lp2662
(g3
I395
F2.49
tp2663
a(g5
I2
F0.01
tp2664
a(g7
I26
F0.16
tp2665
a(g9
I3
F0.02
tp2666
a(g11
I1
F0.01
tp2667
a(g13
I15344
F96.77
tp2668
a(g15
I0
F0.0
tp2669
a(g17
I0
F0.0
tp2670
a(g19
I0
F0.0
tp2671
a(g21
I1
F0.01
tp2672
a(g23
I2
F0.01
tp2673
a(g25
I1
F0.01
tp2674
a(g27
I5
F0.03
tp2675
a(g29
I0
F0.0
tp2676
a(g31
I2
F0.01
tp2677
a(g33
I26
F0.16
tp2678
a(g35
I3
F0.02
tp2679
a(g37
I43
F0.27
tp2680
a(g39
I0
F0.0
tp2681
a(g41
I1
F0.01
tp2682
asS'L67'
p2683
(lp2684
(g3
I124
F0.78
tp2685
a(g5
I5
F0.03
tp2686
a(g7
I2
F0.01
tp2687
a(g9
I0
F0.0
tp2688
a(g11
I139
F0.88
tp2689
a(g13
I20
F0.13
tp2690
a(g15
I2
F0.01
tp2691
a(g17
I4
F0.03
tp2692
a(g19
I0
F0.0
tp2693
a(g21
I251
F1.58
tp2694
a(g23
I0
F0.0
tp2695
a(g25
I1
F0.01
tp2696
a(g27
I47
F0.3
tp2697
a(g29
I3
F0.02
tp2698
a(g31
I7
F0.04
tp2699
a(g33
I15101
F95.24
tp2700
a(g35
I27
F0.17
tp2701
a(g37
I5
F0.03
tp2702
a(g39
I57
F0.36
tp2703
a(g41
I57
F0.36
tp2704
asS'L66'
p2705
(lp2706
(g3
I98
F0.62
tp2707
a(g5
I1
F0.01
tp2708
a(g7
I12
F0.08
tp2709
a(g9
I42
F0.27
tp2710
a(g11
I3
F0.02
tp2711
a(g13
I8552
F54.0
tp2712
a(g15
I10
F0.06
tp2713
a(g17
I377
F2.38
tp2714
a(g19
I3996
F25.23
tp2715
a(g21
I176
F1.11
tp2716
a(g23
I9
F0.06
tp2717
a(g25
I1002
F6.33
tp2718
a(g27
I13
F0.08
tp2719
a(g29
I42
F0.27
tp2720
a(g31
I384
F2.42
tp2721
a(g33
I806
F5.09
tp2722
a(g35
I142
F0.9
tp2723
a(g37
I152
F0.96
tp2724
a(g39
I4
F0.03
tp2725
a(g41
I10
F0.06
tp2726
asS'L61'
p2727
(lp2728
(g3
I1
F0.01
tp2729
a(g5
I5
F0.03
tp2730
a(g7
I0
F0.0
tp2731
a(g9
I1
F0.01
tp2732
a(g11
I0
F0.0
tp2733
a(g13
I17
F0.11
tp2734
a(g15
I6
F0.04
tp2735
a(g17
I2
F0.01
tp2736
a(g19
I169
F1.07
tp2737
a(g21
I4
F0.03
tp2738
a(g23
I1
F0.01
tp2739
a(g25
I16
F0.1
tp2740
a(g27
I6
F0.04
tp2741
a(g29
I12
F0.08
tp2742
a(g31
I15556
F98.11
tp2743
a(g33
I21
F0.13
tp2744
a(g35
I38
F0.24
tp2745
a(g37
I0
F0.0
tp2746
a(g39
I0
F0.0
tp2747
a(g41
I0
F0.0
tp2748
asS'L60'
p2749
(lp2750
(g3
I1446
F9.12
tp2751
a(g5
I0
F0.0
tp2752
a(g7
I7597
F47.91
tp2753
a(g9
I1573
F9.92
tp2754
a(g11
I5
F0.03
tp2755
a(g13
I103
F0.65
tp2756
a(g15
I59
F0.37
tp2757
a(g17
I7
F0.04
tp2758
a(g19
I6
F0.04
tp2759
a(g21
I33
F0.21
tp2760
a(g23
I0
F0.0
tp2761
a(g25
I728
F4.59
tp2762
a(g27
I126
F0.79
tp2763
a(g29
I11
F0.07
tp2764
a(g31
I7
F0.04
tp2765
a(g33
I4007
F25.27
tp2766
a(g35
I45
F0.28
tp2767
a(g37
I59
F0.37
tp2768
a(g39
I5
F0.03
tp2769
a(g41
I31
F0.2
tp2770
asS'L63'
p2771
(lp2772
(g3
I34
F0.21
tp2773
a(g5
I4
F0.03
tp2774
a(g7
I2
F0.01
tp2775
a(g9
I0
F0.0
tp2776
a(g11
I30
F0.19
tp2777
a(g13
I154
F0.97
tp2778
a(g15
I0
F0.0
tp2779
a(g17
I114
F0.72
tp2780
a(g19
I2
F0.01
tp2781
a(g21
I8
F0.05
tp2782
a(g23
I19
F0.12
tp2783
a(g25
I38
F0.24
tp2784
a(g27
I5
F0.03
tp2785
a(g29
I1
F0.01
tp2786
a(g31
I107
F0.67
tp2787
a(g33
I14911
F94.04
tp2788
a(g35
I168
F1.06
tp2789
a(g37
I239
F1.51
tp2790
a(g39
I0
F0.0
tp2791
a(g41
I10
F0.06
tp2792
asS'L62'
p2793
(lp2794
(g3
I0
F0.0
tp2795
a(g5
I1
F0.01
tp2796
a(g7
I0
F0.0
tp2797
a(g9
I0
F0.0
tp2798
a(g11
I15587
F98.3
tp2799
a(g13
I5
F0.03
tp2800
a(g15
I0
F0.0
tp2801
a(g17
I87
F0.55
tp2802
a(g19
I1
F0.01
tp2803
a(g21
I84
F0.53
tp2804
a(g23
I2
F0.01
tp2805
a(g25
I0
F0.0
tp2806
a(g27
I0
F0.0
tp2807
a(g29
I0
F0.0
tp2808
a(g31
I1
F0.01
tp2809
a(g33
I16
F0.1
tp2810
a(g35
I0
F0.0
tp2811
a(g37
I56
F0.35
tp2812
a(g39
I0
F0.0
tp2813
a(g41
I14
F0.09
tp2814
asS'L69'
p2815
(lp2816
(g3
I417
F2.63
tp2817
a(g5
I0
F0.0
tp2818
a(g7
I133
F0.84
tp2819
a(g9
I6
F0.04
tp2820
a(g11
I2
F0.01
tp2821
a(g13
I184
F1.16
tp2822
a(g15
I17
F0.11
tp2823
a(g17
I34
F0.21
tp2824
a(g19
I37
F0.23
tp2825
a(g21
I26
F0.16
tp2826
a(g23
I6
F0.04
tp2827
a(g25
I3305
F20.84
tp2828
a(g27
I45
F0.28
tp2829
a(g29
I17
F0.11
tp2830
a(g31
I49
F0.31
tp2831
a(g33
I279
F1.76
tp2832
a(g35
I11274
F71.1
tp2833
a(g37
I7
F0.04
tp2834
a(g39
I12
F0.08
tp2835
a(g41
I4
F0.03
tp2836
asS'L68'
p2837
(lp2838
(g3
I261
F1.65
tp2839
a(g5
I1
F0.01
tp2840
a(g7
I120
F0.76
tp2841
a(g9
I107
F0.67
tp2842
a(g11
I3
F0.02
tp2843
a(g13
I14883
F93.86
tp2844
a(g15
I22
F0.14
tp2845
a(g17
I2
F0.01
tp2846
a(g19
I0
F0.0
tp2847
a(g21
I1
F0.01
tp2848
a(g23
I0
F0.0
tp2849
a(g25
I0
F0.0
tp2850
a(g27
I1
F0.01
tp2851
a(g29
I5
F0.03
tp2852
a(g31
I56
F0.35
tp2853
a(g33
I330
F2.08
tp2854
a(g35
I20
F0.13
tp2855
a(g37
I29
F0.18
tp2856
a(g39
I3
F0.02
tp2857
a(g41
I10
F0.06
tp2858
asS'L6'
p2859
(lp2860
(g3
I41
F0.3
tp2861
a(g5
I0
F0.0
tp2862
a(g7
I63
F0.47
tp2863
a(g9
I3
F0.02
tp2864
a(g11
I40
F0.3
tp2865
a(g13
I22
F0.16
tp2866
a(g15
I29
F0.21
tp2867
a(g17
I5
F0.04
tp2868
a(g19
I8
F0.06
tp2869
a(g21
I42
F0.31
tp2870
a(g23
I0
F0.0
tp2871
a(g25
I0
F0.0
tp2872
a(g27
I125
F0.93
tp2873
a(g29
I12166
F90.17
tp2874
a(g31
I15
F0.11
tp2875
a(g33
I656
F4.86
tp2876
a(g35
I266
F1.97
tp2877
a(g37
I1
F0.01
tp2878
a(g39
I0
F0.0
tp2879
a(g41
I3
F0.02
tp2880
asS'L7'
p2881
(lp2882
(g3
I65
F0.51
tp2883
a(g5
I2
F0.02
tp2884
a(g7
I319
F2.51
tp2885
a(g9
I214
F1.68
tp2886
a(g11
I60
F0.47
tp2887
a(g13
I13
F0.1
tp2888
a(g15
I5
F0.04
tp2889
a(g17
I3
F0.02
tp2890
a(g19
I1
F0.01
tp2891
a(g21
I44
F0.35
tp2892
a(g23
I0
F0.0
tp2893
a(g25
I3
F0.02
tp2894
a(g27
I5065
F39.85
tp2895
a(g29
I21
F0.17
tp2896
a(g31
I10
F0.08
tp2897
a(g33
I6547
F51.51
tp2898
a(g35
I322
F2.53
tp2899
a(g37
I11
F0.09
tp2900
a(g39
I1
F0.01
tp2901
a(g41
I4
F0.03
tp2902
asS'L4'
p2903
(lp2904
(g3
I9
F0.07
tp2905
a(g5
I6
F0.05
tp2906
a(g7
I3
F0.02
tp2907
a(g9
I24
F0.2
tp2908
a(g11
I3
F0.02
tp2909
a(g13
I2
F0.02
tp2910
a(g15
I1
F0.01
tp2911
a(g17
I17
F0.14
tp2912
a(g19
I0
F0.0
tp2913
a(g21
I7801
F64.67
tp2914
a(g23
I3721
F30.85
tp2915
a(g25
I1
F0.01
tp2916
a(g27
I3
F0.02
tp2917
a(g29
I8
F0.07
tp2918
a(g31
I4
F0.03
tp2919
a(g33
I5
F0.04
tp2920
a(g35
I1
F0.01
tp2921
a(g37
I442
F3.66
tp2922
a(g39
I2
F0.02
tp2923
a(g41
I2
F0.02
tp2924
asS'L5'
p2925
(lp2926
(g3
I224
F1.63
tp2927
a(g5
I1
F0.01
tp2928
a(g7
I92
F0.67
tp2929
a(g9
I19
F0.14
tp2930
a(g11
I18
F0.13
tp2931
a(g13
I123
F0.9
tp2932
a(g15
I14
F0.1
tp2933
a(g17
I46
F0.33
tp2934
a(g19
I7
F0.05
tp2935
a(g21
I51
F0.37
tp2936
a(g23
I11
F0.08
tp2937
a(g25
I22
F0.16
tp2938
a(g27
I250
F1.82
tp2939
a(g29
I166
F1.21
tp2940
a(g31
I16
F0.12
tp2941
a(g33
I737
F5.36
tp2942
a(g35
I11936
F86.86
tp2943
a(g37
I6
F0.04
tp2944
a(g39
I1
F0.01
tp2945
a(g41
I0
F0.0
tp2946
asS'L2'
p2947
(lp2948
(g3
I359
F3.14
tp2949
a(g5
I3
F0.03
tp2950
a(g7
I27
F0.24
tp2951
a(g9
I9
F0.08
tp2952
a(g11
I289
F2.53
tp2953
a(g13
I7
F0.06
tp2954
a(g15
I20
F0.17
tp2955
a(g17
I4851
F42.44
tp2956
a(g19
I0
F0.0
tp2957
a(g21
I372
F3.25
tp2958
a(g23
I8
F0.07
tp2959
a(g25
I20
F0.17
tp2960
a(g27
I142
F1.24
tp2961
a(g29
I42
F0.37
tp2962
a(g31
I2
F0.02
tp2963
a(g33
I3363
F29.43
tp2964
a(g35
I199
F1.74
tp2965
a(g37
I668
F5.84
tp2966
a(g39
I1
F0.01
tp2967
a(g41
I1045
F9.14
tp2968
asS'L3'
p2969
(lp2970
(g3
I1221
F10.3
tp2971
a(g5
I9
F0.08
tp2972
a(g7
I73
F0.62
tp2973
a(g9
I1641
F13.85
tp2974
a(g11
I7
F0.06
tp2975
a(g13
I187
F1.58
tp2976
a(g15
I7
F0.06
tp2977
a(g17
I57
F0.48
tp2978
a(g19
I8
F0.07
tp2979
a(g21
I108
F0.91
tp2980
a(g23
I291
F2.46
tp2981
a(g25
I3
F0.03
tp2982
a(g27
I11
F0.09
tp2983
a(g29
I1917
F16.18
tp2984
a(g31
I84
F0.71
tp2985
a(g33
I13
F0.11
tp2986
a(g35
I69
F0.58
tp2987
a(g37
I6128
F51.71
tp2988
a(g39
I13
F0.11
tp2989
a(g41
I1
F0.01
tp2990
asS'L1'
p2991
(lp2992
(g3
I357
F3.24
tp2993
a(g5
I0
F0.0
tp2994
a(g7
I3135
F28.44
tp2995
a(g9
I2270
F20.6
tp2996
a(g11
I23
F0.21
tp2997
a(g13
I78
F0.71
tp2998
a(g15
I45
F0.41
tp2999
a(g17
I13
F0.12
tp3000
a(g19
I25
F0.23
tp3001
a(g21
I34
F0.31
tp3002
a(g23
I38
F0.34
tp3003
a(g25
I212
F1.92
tp3004
a(g27
I29
F0.26
tp3005
a(g29
I3255
F29.53
tp3006
a(g31
I14
F0.13
tp3007
a(g33
I1323
F12.0
tp3008
a(g35
I26
F0.24
tp3009
a(g37
I27
F0.24
tp3010
a(g39
I0
F0.0
tp3011
a(g41
I103
F0.93
tp3012
asS'L8'
p3013
(lp3014
(g3
I950
F7.58
tp3015
a(g5
I14
F0.11
tp3016
a(g7
I17
F0.14
tp3017
a(g9
I0
F0.0
tp3018
a(g11
I1
F0.01
tp3019
a(g13
I30
F0.24
tp3020
a(g15
I237
F1.89
tp3021
a(g17
I1
F0.01
tp3022
a(g19
I0
F0.0
tp3023
a(g21
I92
F0.73
tp3024
a(g23
I0
F0.0
tp3025
a(g25
I0
F0.0
tp3026
a(g27
I10695
F85.39
tp3027
a(g29
I8
F0.06
tp3028
a(g31
I150
F1.2
tp3029
a(g33
I242
F1.93
tp3030
a(g35
I57
F0.46
tp3031
a(g37
I27
F0.22
tp3032
a(g39
I1
F0.01
tp3033
a(g41
I3
F0.02
tp3034
asS'L9'
p3035
(lp3036
(g3
I1173
F9.47
tp3037
a(g5
I3
F0.02
tp3038
a(g7
I644
F5.2
tp3039
a(g9
I9
F0.07
tp3040
a(g11
I41
F0.33
tp3041
a(g13
I1374
F11.09
tp3042
a(g15
I7
F0.06
tp3043
a(g17
I7
F0.06
tp3044
a(g19
I11
F0.09
tp3045
a(g21
I727
F5.87
tp3046
a(g23
I0
F0.0
tp3047
a(g25
I2
F0.02
tp3048
a(g27
I79
F0.64
tp3049
a(g29
I2
F0.02
tp3050
a(g31
I8
F0.06
tp3051
a(g33
I8140
F65.69
tp3052
a(g35
I72
F0.58
tp3053
a(g37
I89
F0.72
tp3054
a(g39
I1
F0.01
tp3055
a(g41
I2
F0.02
tp3056
as.