(dp0
S'L78'
p1
(lp2
(S'A'
p3
I465
F7.7
tp4
a(S'C'
p5
I0
F0.0
tp6
a(S'D'
p7
I0
F0.0
tp8
a(S'E'
p9
I0
F0.0
tp10
a(S'F'
p11
I1
F0.02
tp12
a(S'G'
p13
I5
F0.08
tp14
a(S'H'
p15
I0
F0.0
tp16
a(S'I'
p17
I66
F1.09
tp18
a(S'K'
p19
I0
F0.0
tp20
a(S'L'
p21
I1230
F20.36
tp22
a(S'M'
p23
I1308
F21.65
tp24
a(S'N'
p25
I5
F0.08
tp26
a(S'P'
p27
I5
F0.08
tp28
a(S'Q'
p29
I0
F0.0
tp30
a(S'R'
p31
I21
F0.35
tp32
a(S'S'
p33
I10
F0.17
tp34
a(S'T'
p35
I36
F0.6
tp36
a(S'V'
p37
I2875
F47.58
tp38
a(S'W'
p39
I2
F0.03
tp40
a(S'Y'
p41
I0
F0.0
tp42
asS'L79'
p43
(lp44
(g3
I14
F0.23
tp45
a(g5
I0
F0.0
tp46
a(g7
I22
F0.36
tp47
a(g9
I4058
F67.16
tp48
a(g11
I2
F0.03
tp49
a(g13
I8
F0.13
tp50
a(g15
I14
F0.23
tp51
a(g17
I1
F0.02
tp52
a(g19
I144
F2.38
tp53
a(g21
I58
F0.96
tp54
a(g23
I6
F0.1
tp55
a(g25
I1
F0.02
tp56
a(g27
I1
F0.02
tp57
a(g29
I1665
F27.56
tp58
a(g31
I11
F0.18
tp59
a(g33
I2
F0.03
tp60
a(g35
I0
F0.0
tp61
a(g37
I25
F0.41
tp62
a(g39
I0
F0.0
tp63
a(g41
I1
F0.02
tp64
asS'L72'
p65
(lp66
(g3
I469
F7.76
tp67
a(g5
I0
F0.0
tp68
a(g7
I1
F0.02
tp69
a(g9
I0
F0.0
tp70
a(g11
I55
F0.91
tp71
a(g13
I0
F0.0
tp72
a(g15
I1
F0.02
tp73
a(g17
I24
F0.4
tp74
a(g19
I1
F0.02
tp75
a(g21
I1
F0.02
tp76
a(g23
I0
F0.0
tp77
a(g25
I1
F0.02
tp78
a(g27
I9
F0.15
tp79
a(g29
I0
F0.0
tp80
a(g31
I3
F0.05
tp81
a(g33
I2551
F42.22
tp82
a(g35
I2809
F46.49
tp83
a(g37
I61
F1.01
tp84
a(g39
I0
F0.0
tp85
a(g41
I48
F0.79
tp86
asS'L73'
p87
(lp88
(g3
I1
F0.02
tp89
a(g5
I0
F0.0
tp90
a(g7
I0
F0.0
tp91
a(g9
I1
F0.02
tp92
a(g11
I284
F4.7
tp93
a(g13
I0
F0.0
tp94
a(g15
I0
F0.0
tp95
a(g17
I1
F0.02
tp96
a(g19
I0
F0.0
tp97
a(g21
I5692
F94.21
tp98
a(g23
I2
F0.03
tp99
a(g25
I0
F0.0
tp100
a(g27
I4
F0.07
tp101
a(g29
I3
F0.05
tp102
a(g31
I0
F0.0
tp103
a(g33
I13
F0.22
tp104
a(g35
I33
F0.55
tp105
a(g37
I3
F0.05
tp106
a(g39
I0
F0.0
tp107
a(g41
I0
F0.0
tp108
asS'L70'
p109
(lp110
(g3
I69
F1.14
tp111
a(g5
I0
F0.0
tp112
a(g7
I3610
F59.75
tp113
a(g9
I21
F0.35
tp114
a(g11
I28
F0.46
tp115
a(g13
I39
F0.65
tp116
a(g15
I16
F0.26
tp117
a(g17
I2
F0.03
tp118
a(g19
I471
F7.8
tp119
a(g21
I3
F0.05
tp120
a(g23
I1
F0.02
tp121
a(g25
I11
F0.18
tp122
a(g27
I3
F0.05
tp123
a(g29
I217
F3.59
tp124
a(g31
I3
F0.05
tp125
a(g33
I1453
F24.05
tp126
a(g35
I62
F1.03
tp127
a(g37
I9
F0.15
tp128
a(g39
I0
F0.0
tp129
a(g41
I10
F0.17
tp130
asS'L71'
p131
(lp132
(g3
I466
F7.71
tp133
a(g5
I4
F0.07
tp134
a(g7
I40
F0.66
tp135
a(g9
I0
F0.0
tp136
a(g11
I3088
F51.11
tp137
a(g13
I4
F0.07
tp138
a(g15
I9
F0.15
tp139
a(g17
I2
F0.03
tp140
a(g19
I1
F0.02
tp141
a(g21
I8
F0.13
tp142
a(g23
I0
F0.0
tp143
a(g25
I0
F0.0
tp144
a(g27
I1
F0.02
tp145
a(g29
I2
F0.03
tp146
a(g31
I28
F0.46
tp147
a(g33
I14
F0.23
tp148
a(g35
I0
F0.0
tp149
a(g37
I4
F0.07
tp150
a(g39
I0
F0.0
tp151
a(g41
I2349
F38.88
tp152
asS'L76'
p153
(lp154
(g3
I10
F0.17
tp155
a(g5
I2
F0.03
tp156
a(g7
I87
F1.44
tp157
a(g9
I54
F0.89
tp158
a(g11
I0
F0.0
tp159
a(g13
I92
F1.52
tp160
a(g15
I368
F6.09
tp161
a(g17
I65
F1.08
tp162
a(g19
I5
F0.08
tp163
a(g21
I1
F0.02
tp164
a(g23
I0
F0.0
tp165
a(g25
I570
F9.43
tp166
a(g27
I0
F0.0
tp167
a(g29
I9
F0.15
tp168
a(g31
I26
F0.43
tp169
a(g33
I4166
F68.95
tp170
a(g35
I566
F9.37
tp171
a(g37
I0
F0.0
tp172
a(g39
I0
F0.0
tp173
a(g41
I2
F0.03
tp174
asS'L77'
p175
(lp176
(g3
I3
F0.05
tp177
a(g5
I7
F0.12
tp178
a(g7
I8
F0.13
tp179
a(g9
I6
F0.1
tp180
a(g11
I0
F0.0
tp181
a(g13
I490
F8.11
tp182
a(g15
I6
F0.1
tp183
a(g17
I8
F0.13
tp184
a(g19
I8
F0.13
tp185
a(g21
I1
F0.02
tp186
a(g23
I0
F0.0
tp187
a(g25
I693
F11.47
tp188
a(g27
I550
F9.1
tp189
a(g29
I2
F0.03
tp190
a(g31
I1340
F22.18
tp191
a(g33
I2734
F45.25
tp192
a(g35
I167
F2.76
tp193
a(g37
I1
F0.02
tp194
a(g39
I0
F0.0
tp195
a(g41
I2
F0.03
tp196
asS'L74'
p197
(lp198
(g3
I9
F0.15
tp199
a(g5
I0
F0.0
tp200
a(g7
I2
F0.03
tp201
a(g9
I30
F0.5
tp202
a(g11
I2
F0.03
tp203
a(g13
I1
F0.02
tp204
a(g15
I6
F0.1
tp205
a(g17
I52
F0.86
tp206
a(g19
I1163
F19.25
tp207
a(g21
I42
F0.7
tp208
a(g23
I1
F0.02
tp209
a(g25
I382
F6.32
tp210
a(g27
I1
F0.02
tp211
a(g29
I4
F0.07
tp212
a(g31
I153
F2.53
tp213
a(g33
I328
F5.43
tp214
a(g35
I3853
F63.77
tp215
a(g37
I1
F0.02
tp216
a(g39
I0
F0.0
tp217
a(g41
I2
F0.03
tp218
asS'L75'
p219
(lp220
(g3
I0
F0.0
tp221
a(g5
I0
F0.0
tp222
a(g7
I0
F0.0
tp223
a(g9
I0
F0.0
tp224
a(g11
I4
F0.07
tp225
a(g13
I0
F0.0
tp226
a(g15
I2
F0.03
tp227
a(g17
I5922
F98.01
tp228
a(g19
I19
F0.31
tp229
a(g21
I16
F0.26
tp230
a(g23
I0
F0.0
tp231
a(g25
I6
F0.1
tp232
a(g27
I1
F0.02
tp233
a(g29
I0
F0.0
tp234
a(g31
I2
F0.03
tp235
a(g33
I6
F0.1
tp236
a(g35
I25
F0.41
tp237
a(g37
I32
F0.53
tp238
a(g39
I0
F0.0
tp239
a(g41
I0
F0.0
tp240
asS'L54A'
p241
(lp242
(g3
I0
F0.0
tp243
a(g5
I0
F0.0
tp244
a(g7
I3
F8.82
tp245
a(g9
I0
F0.0
tp246
a(g11
I0
F0.0
tp247
a(g13
I1
F2.94
tp248
a(g15
I0
F0.0
tp249
a(g17
I0
F0.0
tp250
a(g19
I0
F0.0
tp251
a(g21
I2
F5.88
tp252
a(g23
I0
F0.0
tp253
a(g25
I0
F0.0
tp254
a(g27
I0
F0.0
tp255
a(g29
I0
F0.0
tp256
a(g31
I0
F0.0
tp257
a(g33
I27
F79.41
tp258
a(g35
I1
F2.94
tp259
a(g37
I0
F0.0
tp260
a(g39
I0
F0.0
tp261
a(g41
I0
F0.0
tp262
asS'L54C'
p263
(lp264
(g3
I0
F0.0
tp265
a(g5
I0
F0.0
tp266
a(g7
I0
F0.0
tp267
a(g9
I0
F0.0
tp268
a(g11
I0
F0.0
tp269
a(g13
I0
F0.0
tp270
a(g15
I3
F9.68
tp271
a(g17
I1
F3.23
tp272
a(g19
I0
F0.0
tp273
a(g21
I0
F0.0
tp274
a(g23
I0
F0.0
tp275
a(g25
I2
F6.45
tp276
a(g27
I0
F0.0
tp277
a(g29
I0
F0.0
tp278
a(g31
I0
F0.0
tp279
a(g33
I25
F80.65
tp280
a(g35
I0
F0.0
tp281
a(g37
I0
F0.0
tp282
a(g39
I0
F0.0
tp283
a(g41
I0
F0.0
tp284
asS'L54B'
p285
(lp286
(g3
I0
F0.0
tp287
a(g5
I0
F0.0
tp288
a(g7
I0
F0.0
tp289
a(g9
I0
F0.0
tp290
a(g11
I0
F0.0
tp291
a(g13
I0
F0.0
tp292
a(g15
I28
F87.5
tp293
a(g17
I0
F0.0
tp294
a(g19
I3
F9.38
tp295
a(g21
I1
F3.12
tp296
a(g23
I0
F0.0
tp297
a(g25
I0
F0.0
tp298
a(g27
I0
F0.0
tp299
a(g29
I0
F0.0
tp300
a(g31
I0
F0.0
tp301
a(g33
I0
F0.0
tp302
a(g35
I0
F0.0
tp303
a(g37
I0
F0.0
tp304
a(g39
I0
F0.0
tp305
a(g41
I0
F0.0
tp306
asS'L54E'
p307
(lp308
(g3
I0
F0.0
tp309
a(g5
I0
F0.0
tp310
a(g7
I0
F0.0
tp311
a(g9
I0
F0.0
tp312
a(g11
I0
F0.0
tp313
a(g13
I0
F0.0
tp314
a(g15
I0
F0.0
tp315
a(g17
I0
F0.0
tp316
a(g19
I0
F0.0
tp317
a(g21
I0
F0.0
tp318
a(g23
I0
F0.0
tp319
a(g25
I0
F0.0
tp320
a(g27
I0
F0.0
tp321
a(g29
I0
F0.0
tp322
a(g31
I0
F0.0
tp323
a(g33
I0
F0.0
tp324
a(g35
I0
F0.0
tp325
a(g37
I0
F0.0
tp326
a(g39
I0
F0.0
tp327
a(g41
I0
F0.0
tp328
asS'L54D'
p329
(lp330
(g3
I0
F0.0
tp331
a(g5
I0
F0.0
tp332
a(g7
I0
F0.0
tp333
a(g9
I0
F0.0
tp334
a(g11
I0
F0.0
tp335
a(g13
I0
F0.0
tp336
a(g15
I0
F0.0
tp337
a(g17
I0
F0.0
tp338
a(g19
I3
F9.68
tp339
a(g21
I0
F0.0
tp340
a(g23
I0
F0.0
tp341
a(g25
I0
F0.0
tp342
a(g27
I0
F0.0
tp343
a(g29
I3
F9.68
tp344
a(g31
I0
F0.0
tp345
a(g33
I0
F0.0
tp346
a(g35
I25
F80.65
tp347
a(g37
I0
F0.0
tp348
a(g39
I0
F0.0
tp349
a(g41
I0
F0.0
tp350
asS'L18'
p351
(lp352
(g3
I4
F0.07
tp353
a(g5
I0
F0.0
tp354
a(g7
I2
F0.03
tp355
a(g9
I27
F0.45
tp356
a(g11
I0
F0.0
tp357
a(g13
I6
F0.1
tp358
a(g15
I7
F0.12
tp359
a(g17
I15
F0.25
tp360
a(g19
I1840
F30.96
tp361
a(g21
I6
F0.1
tp362
a(g23
I3
F0.05
tp363
a(g25
I3
F0.05
tp364
a(g27
I205
F3.45
tp365
a(g29
I750
F12.62
tp366
a(g31
I1957
F32.93
tp367
a(g33
I281
F4.73
tp368
a(g35
I808
F13.6
tp369
a(g37
I1
F0.02
tp370
a(g39
I2
F0.03
tp371
a(g41
I0
F0.0
tp372
asS'L19'
p373
(lp374
(g3
I1540
F25.8
tp375
a(g5
I0
F0.0
tp376
a(g7
I5
F0.08
tp377
a(g9
I2
F0.03
tp378
a(g11
I0
F0.0
tp379
a(g13
I2
F0.03
tp380
a(g15
I0
F0.0
tp381
a(g17
I218
F3.65
tp382
a(g19
I3
F0.05
tp383
a(g21
I2
F0.03
tp384
a(g23
I1
F0.02
tp385
a(g25
I0
F0.0
tp386
a(g27
I3
F0.05
tp387
a(g29
I0
F0.0
tp388
a(g31
I2
F0.03
tp389
a(g33
I4
F0.07
tp390
a(g35
I1
F0.02
tp391
a(g37
I4159
F69.69
tp392
a(g39
I0
F0.0
tp393
a(g41
I0
F0.0
tp394
asS'L14'
p395
(lp396
(g3
I68
F1.15
tp397
a(g5
I3
F0.05
tp398
a(g7
I0
F0.0
tp399
a(g9
I0
F0.0
tp400
a(g11
I35
F0.59
tp401
a(g13
I6
F0.1
tp402
a(g15
I0
F0.0
tp403
a(g17
I2
F0.03
tp404
a(g19
I0
F0.0
tp405
a(g21
I4
F0.07
tp406
a(g23
I1
F0.02
tp407
a(g25
I17
F0.29
tp408
a(g27
I2
F0.03
tp409
a(g29
I1
F0.02
tp410
a(g31
I5
F0.08
tp411
a(g33
I5111
F86.74
tp412
a(g35
I608
F10.32
tp413
a(g37
I19
F0.32
tp414
a(g39
I0
F0.0
tp415
a(g41
I4
F0.07
tp416
asS'L15'
p417
(lp418
(g3
I336
F5.7
tp419
a(g5
I0
F0.0
tp420
a(g7
I0
F0.0
tp421
a(g9
I3
F0.05
tp422
a(g11
I30
F0.51
tp423
a(g13
I0
F0.0
tp424
a(g15
I0
F0.0
tp425
a(g17
I230
F3.9
tp426
a(g19
I0
F0.0
tp427
a(g21
I2498
F42.35
tp428
a(g23
I2
F0.03
tp429
a(g25
I0
F0.0
tp430
a(g27
I1962
F33.27
tp431
a(g29
I2
F0.03
tp432
a(g31
I10
F0.17
tp433
a(g33
I58
F0.98
tp434
a(g35
I35
F0.59
tp435
a(g37
I726
F12.31
tp436
a(g39
I0
F0.0
tp437
a(g41
I0
F0.0
tp438
asS'L16'
p439
(lp440
(g3
I15
F0.25
tp441
a(g5
I0
F0.0
tp442
a(g7
I0
F0.0
tp443
a(g9
I6
F0.1
tp444
a(g11
I0
F0.0
tp445
a(g13
I5793
F98.05
tp446
a(g15
I0
F0.0
tp447
a(g17
I0
F0.0
tp448
a(g19
I2
F0.03
tp449
a(g21
I4
F0.07
tp450
a(g23
I0
F0.0
tp451
a(g25
I0
F0.0
tp452
a(g27
I5
F0.08
tp453
a(g29
I0
F0.0
tp454
a(g31
I23
F0.39
tp455
a(g33
I37
F0.63
tp456
a(g35
I0
F0.0
tp457
a(g37
I12
F0.2
tp458
a(g39
I2
F0.03
tp459
a(g41
I0
F0.0
tp460
asS'L17'
p461
(lp462
(g3
I39
F0.66
tp463
a(g5
I0
F0.0
tp464
a(g7
I1689
F28.55
tp465
a(g9
I2955
F49.95
tp466
a(g11
I0
F0.0
tp467
a(g13
I199
F3.36
tp468
a(g15
I8
F0.14
tp469
a(g17
I0
F0.0
tp470
a(g19
I46
F0.78
tp471
a(g21
I1
F0.02
tp472
a(g23
I0
F0.0
tp473
a(g25
I18
F0.3
tp474
a(g27
I1
F0.02
tp475
a(g29
I879
F14.86
tp476
a(g31
I3
F0.05
tp477
a(g33
I9
F0.15
tp478
a(g35
I50
F0.85
tp479
a(g37
I1
F0.02
tp480
a(g39
I0
F0.0
tp481
a(g41
I0
F0.0
tp482
asS'L10'
p483
(lp484
(g3
I10
F0.21
tp485
a(g5
I2
F0.04
tp486
a(g7
I0
F0.0
tp487
a(g9
I0
F0.0
tp488
a(g11
I316
F6.67
tp489
a(g13
I0
F0.0
tp490
a(g15
I1
F0.02
tp491
a(g17
I1046
F22.08
tp492
a(g19
I0
F0.0
tp493
a(g21
I96
F2.03
tp494
a(g23
I1
F0.02
tp495
a(g25
I2
F0.04
tp496
a(g27
I10
F0.21
tp497
a(g29
I0
F0.0
tp498
a(g31
I2
F0.04
tp499
a(g33
I2814
F59.39
tp500
a(g35
I371
F7.83
tp501
a(g37
I6
F0.13
tp502
a(g39
I0
F0.0
tp503
a(g41
I56
F1.18
tp504
asS'L11'
p505
(lp506
(g3
I23
F0.39
tp507
a(g5
I0
F0.0
tp508
a(g7
I0
F0.0
tp509
a(g9
I1
F0.02
tp510
a(g11
I34
F0.58
tp511
a(g13
I2
F0.03
tp512
a(g15
I0
F0.0
tp513
a(g17
I44
F0.75
tp514
a(g19
I3
F0.05
tp515
a(g21
I3707
F63.28
tp516
a(g23
I1813
F30.95
tp517
a(g25
I75
F1.28
tp518
a(g27
I6
F0.1
tp519
a(g29
I17
F0.29
tp520
a(g31
I0
F0.0
tp521
a(g33
I27
F0.46
tp522
a(g35
I26
F0.44
tp523
a(g37
I69
F1.18
tp524
a(g39
I0
F0.0
tp525
a(g41
I0
F0.0
tp526
asS'L12'
p527
(lp528
(g3
I1063
F18.08
tp529
a(g5
I2
F0.03
tp530
a(g7
I2
F0.03
tp531
a(g9
I0
F0.0
tp532
a(g11
I20
F0.34
tp533
a(g13
I6
F0.1
tp534
a(g15
I2
F0.03
tp535
a(g17
I7
F0.12
tp536
a(g19
I0
F0.0
tp537
a(g21
I53
F0.9
tp538
a(g23
I8
F0.14
tp539
a(g25
I0
F0.0
tp540
a(g27
I915
F15.56
tp541
a(g29
I0
F0.0
tp542
a(g31
I1
F0.02
tp543
a(g33
I3068
F52.18
tp544
a(g35
I563
F9.57
tp545
a(g37
I11
F0.19
tp546
a(g39
I0
F0.0
tp547
a(g41
I148
F2.52
tp548
asS'L13'
p549
(lp550
(g3
I2469
F41.93
tp551
a(g5
I0
F0.0
tp552
a(g7
I0
F0.0
tp553
a(g9
I0
F0.0
tp554
a(g11
I29
F0.49
tp555
a(g13
I6
F0.1
tp556
a(g15
I0
F0.0
tp557
a(g17
I12
F0.2
tp558
a(g19
I0
F0.0
tp559
a(g21
I23
F0.39
tp560
a(g23
I149
F2.53
tp561
a(g25
I0
F0.0
tp562
a(g27
I3
F0.05
tp563
a(g29
I0
F0.0
tp564
a(g31
I1
F0.02
tp565
a(g33
I34
F0.58
tp566
a(g35
I745
F12.65
tp567
a(g37
I2409
F40.91
tp568
a(g39
I0
F0.0
tp569
a(g41
I1
F0.02
tp570
asS'L106A'
p571
(lp572
(g3
I0
F0.0
tp573
a(g5
I0
F0.0
tp574
a(g7
I0
F0.0
tp575
a(g9
I0
F0.0
tp576
a(g11
I0
F0.0
tp577
a(g13
I0
F0.0
tp578
a(g15
I0
F0.0
tp579
a(g17
I0
F0.0
tp580
a(g19
I0
F0.0
tp581
a(g21
I361
F100.0
tp582
a(g23
I0
F0.0
tp583
a(g25
I0
F0.0
tp584
a(g27
I0
F0.0
tp585
a(g29
I0
F0.0
tp586
a(g31
I0
F0.0
tp587
a(g33
I0
F0.0
tp588
a(g35
I0
F0.0
tp589
a(g37
I0
F0.0
tp590
a(g39
I0
F0.0
tp591
a(g41
I0
F0.0
tp592
asS'L27C'
p593
(lp594
(g3
I32
F1.2
tp595
a(g5
I0
F0.0
tp596
a(g7
I309
F11.57
tp597
a(g9
I60
F2.25
tp598
a(g11
I39
F1.46
tp599
a(g13
I4
F0.15
tp600
a(g15
I4
F0.15
tp601
a(g17
I31
F1.16
tp602
a(g19
I0
F0.0
tp603
a(g21
I819
F30.67
tp604
a(g23
I0
F0.0
tp605
a(g25
I13
F0.49
tp606
a(g27
I0
F0.0
tp607
a(g29
I1
F0.04
tp608
a(g31
I2
F0.07
tp609
a(g33
I177
F6.63
tp610
a(g35
I5
F0.19
tp611
a(g37
I1126
F42.17
tp612
a(g39
I0
F0.0
tp613
a(g41
I39
F1.46
tp614
asS'L27B'
p615
(lp616
(g3
I434
F16.2
tp617
a(g5
I0
F0.0
tp618
a(g7
I4
F0.15
tp619
a(g9
I0
F0.0
tp620
a(g11
I9
F0.34
tp621
a(g13
I2
F0.07
tp622
a(g15
I5
F0.19
tp623
a(g17
I349
F13.03
tp624
a(g19
I0
F0.0
tp625
a(g21
I1253
F46.77
tp626
a(g23
I0
F0.0
tp627
a(g25
I5
F0.19
tp628
a(g27
I8
F0.3
tp629
a(g29
I0
F0.0
tp630
a(g31
I1
F0.04
tp631
a(g33
I4
F0.15
tp632
a(g35
I20
F0.75
tp633
a(g37
I575
F21.46
tp634
a(g39
I0
F0.0
tp635
a(g41
I0
F0.0
tp636
asS'L27A'
p637
(lp638
(g3
I4
F0.12
tp639
a(g5
I1
F0.03
tp640
a(g7
I6
F0.19
tp641
a(g9
I5
F0.16
tp642
a(g11
I1
F0.03
tp643
a(g13
I473
F14.76
tp644
a(g15
I0
F0.0
tp645
a(g17
I10
F0.31
tp646
a(g19
I4
F0.12
tp647
a(g21
I4
F0.12
tp648
a(g23
I0
F0.0
tp649
a(g25
I68
F2.12
tp650
a(g27
I0
F0.0
tp651
a(g29
I25
F0.78
tp652
a(g31
I23
F0.72
tp653
a(g33
I2514
F78.44
tp654
a(g35
I55
F1.72
tp655
a(g37
I6
F0.19
tp656
a(g39
I0
F0.0
tp657
a(g41
I2
F0.06
tp658
asS'L27F'
p659
(lp660
(g3
I3
F0.6
tp661
a(g5
I0
F0.0
tp662
a(g7
I1
F0.2
tp663
a(g9
I4
F0.8
tp664
a(g11
I0
F0.0
tp665
a(g13
I152
F30.28
tp666
a(g15
I0
F0.0
tp667
a(g17
I4
F0.8
tp668
a(g19
I36
F7.17
tp669
a(g21
I0
F0.0
tp670
a(g23
I0
F0.0
tp671
a(g25
I15
F2.99
tp672
a(g27
I1
F0.2
tp673
a(g29
I0
F0.0
tp674
a(g31
I119
F23.71
tp675
a(g33
I152
F30.28
tp676
a(g35
I4
F0.8
tp677
a(g37
I1
F0.2
tp678
a(g39
I1
F0.2
tp679
a(g41
I4
F0.8
tp680
asS'L27E'
p681
(lp682
(g3
I1
F0.06
tp683
a(g5
I2
F0.12
tp684
a(g7
I5
F0.3
tp685
a(g9
I1
F0.06
tp686
a(g11
I2
F0.12
tp687
a(g13
I12
F0.73
tp688
a(g15
I0
F0.0
tp689
a(g17
I13
F0.79
tp690
a(g19
I24
F1.46
tp691
a(g21
I0
F0.0
tp692
a(g23
I1
F0.06
tp693
a(g25
I34
F2.07
tp694
a(g27
I0
F0.0
tp695
a(g29
I0
F0.0
tp696
a(g31
I33
F2.01
tp697
a(g33
I1473
F89.71
tp698
a(g35
I36
F2.19
tp699
a(g37
I2
F0.12
tp700
a(g39
I0
F0.0
tp701
a(g41
I0
F0.0
tp702
asS'L27D'
p703
(lp704
(g3
I12
F0.55
tp705
a(g5
I0
F0.0
tp706
a(g7
I134
F6.11
tp707
a(g9
I4
F0.18
tp708
a(g11
I17
F0.77
tp709
a(g13
I3
F0.14
tp710
a(g15
I818
F37.28
tp711
a(g17
I12
F0.55
tp712
a(g19
I23
F1.05
tp713
a(g21
I5
F0.23
tp714
a(g23
I0
F0.0
tp715
a(g25
I446
F20.33
tp716
a(g27
I0
F0.0
tp717
a(g29
I9
F0.41
tp718
a(g31
I18
F0.82
tp719
a(g33
I191
F8.71
tp720
a(g35
I170
F7.75
tp721
a(g37
I4
F0.18
tp722
a(g39
I8
F0.36
tp723
a(g41
I310
F14.13
tp724
asS'L87'
p725
(lp726
(g3
I0
F0.0
tp727
a(g5
I12
F0.2
tp728
a(g7
I0
F0.0
tp729
a(g9
I0
F0.0
tp730
a(g11
I1715
F28.38
tp731
a(g13
I0
F0.0
tp732
a(g15
I55
F0.91
tp733
a(g17
I33
F0.55
tp734
a(g19
I0
F0.0
tp735
a(g21
I10
F0.17
tp736
a(g23
I0
F0.0
tp737
a(g25
I1
F0.02
tp738
a(g27
I0
F0.0
tp739
a(g29
I0
F0.0
tp740
a(g31
I0
F0.0
tp741
a(g33
I12
F0.2
tp742
a(g35
I1
F0.02
tp743
a(g37
I0
F0.0
tp744
a(g39
I0
F0.0
tp745
a(g41
I4187
F69.3
tp746
asS'L86'
p747
(lp748
(g3
I0
F0.0
tp749
a(g5
I1
F0.02
tp750
a(g7
I0
F0.0
tp751
a(g9
I0
F0.0
tp752
a(g11
I31
F0.51
tp753
a(g13
I0
F0.0
tp754
a(g15
I6
F0.1
tp755
a(g17
I2
F0.03
tp756
a(g19
I0
F0.0
tp757
a(g21
I0
F0.0
tp758
a(g23
I0
F0.0
tp759
a(g25
I7
F0.12
tp760
a(g27
I0
F0.0
tp761
a(g29
I0
F0.0
tp762
a(g31
I0
F0.0
tp763
a(g33
I2
F0.03
tp764
a(g35
I0
F0.0
tp765
a(g37
I0
F0.0
tp766
a(g39
I0
F0.0
tp767
a(g41
I5984
F99.04
tp768
asS'L85'
p769
(lp770
(g3
I18
F0.3
tp771
a(g5
I0
F0.0
tp772
a(g7
I551
F9.12
tp773
a(g9
I94
F1.56
tp774
a(g11
I10
F0.17
tp775
a(g13
I2
F0.03
tp776
a(g15
I38
F0.63
tp777
a(g17
I636
F10.53
tp778
a(g19
I3
F0.05
tp779
a(g21
I62
F1.03
tp780
a(g23
I353
F5.84
tp781
a(g25
I24
F0.4
tp782
a(g27
I1
F0.02
tp783
a(g29
I0
F0.0
tp784
a(g31
I7
F0.12
tp785
a(g33
I240
F3.97
tp786
a(g35
I2397
F39.67
tp787
a(g37
I1601
F26.5
tp788
a(g39
I0
F0.0
tp789
a(g41
I0
F0.0
tp790
asS'L84'
p791
(lp792
(g3
I4224
F69.91
tp793
a(g5
I0
F0.0
tp794
a(g7
I2
F0.03
tp795
a(g9
I0
F0.0
tp796
a(g11
I0
F0.0
tp797
a(g13
I1598
F26.45
tp798
a(g15
I0
F0.0
tp799
a(g17
I1
F0.02
tp800
a(g19
I0
F0.0
tp801
a(g21
I3
F0.05
tp802
a(g23
I0
F0.0
tp803
a(g25
I0
F0.0
tp804
a(g27
I3
F0.05
tp805
a(g29
I0
F0.0
tp806
a(g31
I1
F0.02
tp807
a(g33
I21
F0.35
tp808
a(g35
I54
F0.89
tp809
a(g37
I123
F2.04
tp810
a(g39
I0
F0.0
tp811
a(g41
I0
F0.0
tp812
asS'L83'
p813
(lp814
(g3
I1615
F26.73
tp815
a(g5
I0
F0.0
tp816
a(g7
I118
F1.95
tp817
a(g9
I422
F6.98
tp818
a(g11
I643
F10.64
tp819
a(g13
I19
F0.31
tp820
a(g15
I1
F0.02
tp821
a(g17
I468
F7.75
tp822
a(g19
I0
F0.0
tp823
a(g21
I1822
F30.16
tp824
a(g23
I111
F1.84
tp825
a(g25
I2
F0.03
tp826
a(g27
I5
F0.08
tp827
a(g29
I12
F0.2
tp828
a(g31
I0
F0.0
tp829
a(g33
I19
F0.31
tp830
a(g35
I170
F2.81
tp831
a(g37
I583
F9.65
tp832
a(g39
I0
F0.0
tp833
a(g41
I1
F0.02
tp834
asS'L82'
p835
(lp836
(g3
I2
F0.03
tp837
a(g5
I0
F0.0
tp838
a(g7
I5964
F98.71
tp839
a(g9
I26
F0.43
tp840
a(g11
I0
F0.0
tp841
a(g13
I9
F0.15
tp842
a(g15
I3
F0.05
tp843
a(g17
I1
F0.02
tp844
a(g19
I0
F0.0
tp845
a(g21
I0
F0.0
tp846
a(g23
I0
F0.0
tp847
a(g25
I8
F0.13
tp848
a(g27
I0
F0.0
tp849
a(g29
I0
F0.0
tp850
a(g31
I0
F0.0
tp851
a(g33
I0
F0.0
tp852
a(g35
I0
F0.0
tp853
a(g37
I7
F0.12
tp854
a(g39
I0
F0.0
tp855
a(g41
I3
F0.05
tp856
asS'L81'
p857
(lp858
(g3
I32
F0.53
tp859
a(g5
I0
F0.0
tp860
a(g7
I373
F6.17
tp861
a(g9
I5583
F92.4
tp862
a(g11
I0
F0.0
tp863
a(g13
I14
F0.23
tp864
a(g15
I0
F0.0
tp865
a(g17
I0
F0.0
tp866
a(g19
I4
F0.07
tp867
a(g21
I0
F0.0
tp868
a(g23
I0
F0.0
tp869
a(g25
I0
F0.0
tp870
a(g27
I0
F0.0
tp871
a(g29
I8
F0.13
tp872
a(g31
I0
F0.0
tp873
a(g33
I2
F0.03
tp874
a(g35
I0
F0.0
tp875
a(g37
I7
F0.12
tp876
a(g39
I0
F0.0
tp877
a(g41
I0
F0.0
tp878
asS'L80'
p879
(lp880
(g3
I3288
F54.42
tp881
a(g5
I2
F0.03
tp882
a(g7
I21
F0.35
tp883
a(g9
I406
F6.72
tp884
a(g11
I4
F0.07
tp885
a(g13
I36
F0.6
tp886
a(g15
I7
F0.12
tp887
a(g17
I2
F0.03
tp888
a(g19
I1
F0.02
tp889
a(g21
I0
F0.0
tp890
a(g23
I0
F0.0
tp891
a(g25
I3
F0.05
tp892
a(g27
I611
F10.11
tp893
a(g29
I202
F3.34
tp894
a(g31
I3
F0.05
tp895
a(g33
I631
F10.44
tp896
a(g35
I635
F10.51
tp897
a(g37
I56
F0.93
tp898
a(g39
I0
F0.0
tp899
a(g41
I88
F1.46
tp900
asS'L89'
p901
(lp902
(g3
I514
F8.61
tp903
a(g5
I5
F0.08
tp904
a(g7
I1
F0.02
tp905
a(g9
I8
F0.13
tp906
a(g11
I423
F7.08
tp907
a(g13
I91
F1.52
tp908
a(g15
I406
F6.8
tp909
a(g17
I3
F0.05
tp910
a(g19
I111
F1.86
tp911
a(g21
I653
F10.93
tp912
a(g23
I74
F1.24
tp913
a(g25
I0
F0.0
tp914
a(g27
I10
F0.17
tp915
a(g29
I3102
F51.93
tp916
a(g31
I5
F0.08
tp917
a(g33
I325
F5.44
tp918
a(g35
I8
F0.13
tp919
a(g37
I72
F1.21
tp920
a(g39
I142
F2.38
tp921
a(g41
I5
F0.08
tp922
asS'L88'
p923
(lp924
(g3
I0
F0.0
tp925
a(g5
I6025
F99.72
tp926
a(g7
I0
F0.0
tp927
a(g9
I0
F0.0
tp928
a(g11
I0
F0.0
tp929
a(g13
I0
F0.0
tp930
a(g15
I0
F0.0
tp931
a(g17
I0
F0.0
tp932
a(g19
I0
F0.0
tp933
a(g21
I3
F0.05
tp934
a(g23
I0
F0.0
tp935
a(g25
I0
F0.0
tp936
a(g27
I0
F0.0
tp937
a(g29
I3
F0.05
tp938
a(g31
I1
F0.02
tp939
a(g33
I3
F0.05
tp940
a(g35
I0
F0.0
tp941
a(g37
I1
F0.02
tp942
a(g39
I0
F0.0
tp943
a(g41
I1
F0.02
tp944
asS'L94'
p945
(lp946
(g3
I34
F0.58
tp947
a(g5
I6
F0.1
tp948
a(g7
I302
F5.13
tp949
a(g9
I4
F0.07
tp950
a(g11
I470
F7.98
tp951
a(g13
I11
F0.19
tp952
a(g15
I51
F0.87
tp953
a(g17
I201
F3.41
tp954
a(g19
I12
F0.2
tp955
a(g21
I607
F10.31
tp956
a(g23
I29
F0.49
tp957
a(g25
I887
F15.06
tp958
a(g27
I77
F1.31
tp959
a(g29
I26
F0.44
tp960
a(g31
I11
F0.19
tp961
a(g33
I542
F9.2
tp962
a(g35
I427
F7.25
tp963
a(g37
I767
F13.02
tp964
a(g39
I144
F2.44
tp965
a(g41
I1261
F21.41
tp966
asS'L95'
p967
(lp968
(g3
I6
F0.11
tp969
a(g5
I0
F0.0
tp970
a(g7
I0
F0.0
tp971
a(g9
I0
F0.0
tp972
a(g11
I8
F0.15
tp973
a(g13
I3
F0.06
tp974
a(g15
I325
F6.09
tp975
a(g17
I8
F0.15
tp976
a(g19
I26
F0.49
tp977
a(g21
I59
F1.1
tp978
a(g23
I5
F0.09
tp979
a(g25
I5
F0.09
tp980
a(g27
I4759
F89.1
tp981
a(g29
I20
F0.37
tp982
a(g31
I17
F0.32
tp983
a(g33
I32
F0.6
tp984
a(g35
I35
F0.66
tp985
a(g37
I4
F0.07
tp986
a(g39
I2
F0.04
tp987
a(g41
I7
F0.13
tp988
asS'L96'
p989
(lp990
(g3
I4
F0.08
tp991
a(g5
I16
F0.3
tp992
a(g7
I4
F0.08
tp993
a(g9
I0
F0.0
tp994
a(g11
I557
F10.57
tp995
a(g13
I6
F0.11
tp996
a(g15
I64
F1.21
tp997
a(g17
I66
F1.25
tp998
a(g19
I0
F0.0
tp999
a(g21
I1278
F24.25
tp1000
a(g23
I2
F0.04
tp1001
a(g25
I8
F0.15
tp1002
a(g27
I512
F9.71
tp1003
a(g29
I49
F0.93
tp1004
a(g31
I408
F7.74
tp1005
a(g33
I35
F0.66
tp1006
a(g35
I10
F0.19
tp1007
a(g37
I36
F0.68
tp1008
a(g39
I1001
F18.99
tp1009
a(g41
I1197
F22.71
tp1010
asS'L97'
p1011
(lp1012
(g3
I17
F0.32
tp1013
a(g5
I0
F0.0
tp1014
a(g7
I1
F0.02
tp1015
a(g9
I0
F0.0
tp1016
a(g11
I0
F0.0
tp1017
a(g13
I0
F0.0
tp1018
a(g15
I1
F0.02
tp1019
a(g17
I43
F0.82
tp1020
a(g19
I2
F0.04
tp1021
a(g21
I12
F0.23
tp1022
a(g23
I7
F0.13
tp1023
a(g25
I0
F0.0
tp1024
a(g27
I19
F0.36
tp1025
a(g29
I0
F0.0
tp1026
a(g31
I2
F0.04
tp1027
a(g33
I26
F0.49
tp1028
a(g35
I4794
F90.99
tp1029
a(g37
I333
F6.32
tp1030
a(g39
I4
F0.08
tp1031
a(g41
I1
F0.02
tp1032
asS'L90'
p1033
(lp1034
(g3
I1
F0.02
tp1035
a(g5
I1
F0.02
tp1036
a(g7
I2
F0.03
tp1037
a(g9
I11
F0.18
tp1038
a(g11
I0
F0.0
tp1039
a(g13
I4
F0.07
tp1040
a(g15
I402
F6.74
tp1041
a(g17
I0
F0.0
tp1042
a(g19
I5
F0.08
tp1043
a(g21
I465
F7.79
tp1044
a(g23
I2
F0.03
tp1045
a(g25
I218
F3.65
tp1046
a(g27
I1
F0.02
tp1047
a(g29
I4780
F80.12
tp1048
a(g31
I18
F0.3
tp1049
a(g33
I10
F0.17
tp1050
a(g35
I2
F0.03
tp1051
a(g37
I26
F0.44
tp1052
a(g39
I2
F0.03
tp1053
a(g41
I0
F0.0
tp1054
asS'L91'
p1055
(lp1056
(g3
I34
F0.57
tp1057
a(g5
I23
F0.39
tp1058
a(g7
I203
F3.41
tp1059
a(g9
I0
F0.0
tp1060
a(g11
I201
F3.37
tp1061
a(g13
I1028
F17.25
tp1062
a(g15
I483
F8.11
tp1063
a(g17
I53
F0.89
tp1064
a(g19
I7
F0.12
tp1065
a(g21
I56
F0.94
tp1066
a(g23
I8
F0.13
tp1067
a(g25
I130
F2.18
tp1068
a(g27
I3
F0.05
tp1069
a(g29
I3
F0.05
tp1070
a(g31
I213
F3.57
tp1071
a(g33
I1029
F17.27
tp1072
a(g35
I63
F1.06
tp1073
a(g37
I45
F0.76
tp1074
a(g39
I1245
F20.89
tp1075
a(g41
I1118
F18.76
tp1076
asS'L92'
p1077
(lp1078
(g3
I207
F3.48
tp1079
a(g5
I12
F0.2
tp1080
a(g7
I297
F4.99
tp1081
a(g9
I12
F0.2
tp1082
a(g11
I42
F0.71
tp1083
a(g13
I85
F1.43
tp1084
a(g15
I347
F5.83
tp1085
a(g17
I33
F0.55
tp1086
a(g19
I92
F1.55
tp1087
a(g21
I178
F2.99
tp1088
a(g23
I4
F0.07
tp1089
a(g25
I718
F12.07
tp1090
a(g27
I5
F0.08
tp1091
a(g29
I53
F0.89
tp1092
a(g31
I168
F2.82
tp1093
a(g33
I1582
F26.6
tp1094
a(g35
I715
F12.02
tp1095
a(g37
I42
F0.71
tp1096
a(g39
I201
F3.38
tp1097
a(g41
I1137
F19.12
tp1098
asS'L93'
p1099
(lp1100
(g3
I32
F0.54
tp1101
a(g5
I3
F0.05
tp1102
a(g7
I53
F0.89
tp1103
a(g9
I791
F13.34
tp1104
a(g11
I8
F0.13
tp1105
a(g13
I299
F5.04
tp1106
a(g15
I935
F15.77
tp1107
a(g17
I35
F0.59
tp1108
a(g19
I119
F2.01
tp1109
a(g21
I21
F0.35
tp1110
a(g23
I4
F0.07
tp1111
a(g25
I355
F5.99
tp1112
a(g27
I8
F0.13
tp1113
a(g29
I35
F0.59
tp1114
a(g31
I231
F3.9
tp1115
a(g33
I2531
F42.69
tp1116
a(g35
I342
F5.77
tp1117
a(g37
I20
F0.34
tp1118
a(g39
I1
F0.02
tp1119
a(g41
I84
F1.42
tp1120
asS'L98'
p1121
(lp1122
(g3
I0
F0.0
tp1123
a(g5
I0
F0.0
tp1124
a(g7
I0
F0.0
tp1125
a(g9
I0
F0.0
tp1126
a(g11
I5231
F99.47
tp1127
a(g13
I1
F0.02
tp1128
a(g15
I0
F0.0
tp1129
a(g17
I1
F0.02
tp1130
a(g19
I0
F0.0
tp1131
a(g21
I13
F0.25
tp1132
a(g23
I0
F0.0
tp1133
a(g25
I0
F0.0
tp1134
a(g27
I1
F0.02
tp1135
a(g29
I0
F0.0
tp1136
a(g31
I0
F0.0
tp1137
a(g33
I3
F0.06
tp1138
a(g35
I2
F0.04
tp1139
a(g37
I3
F0.06
tp1140
a(g39
I0
F0.0
tp1141
a(g41
I0
F0.0
tp1142
asS'L99'
p1143
(lp1144
(g3
I6
F0.11
tp1145
a(g5
I0
F0.0
tp1146
a(g7
I4
F0.08
tp1147
a(g9
I0
F0.0
tp1148
a(g11
I0
F0.0
tp1149
a(g13
I5239
F99.62
tp1150
a(g15
I0
F0.0
tp1151
a(g17
I0
F0.0
tp1152
a(g19
I0
F0.0
tp1153
a(g21
I0
F0.0
tp1154
a(g23
I0
F0.0
tp1155
a(g25
I0
F0.0
tp1156
a(g27
I1
F0.02
tp1157
a(g29
I0
F0.0
tp1158
a(g31
I4
F0.08
tp1159
a(g33
I1
F0.02
tp1160
a(g35
I0
F0.0
tp1161
a(g37
I1
F0.02
tp1162
a(g39
I0
F0.0
tp1163
a(g41
I0
F0.0
tp1164
asS'L66D'
p1165
(lp1166
(g3
I0
F0.0
tp1167
a(g5
I0
F0.0
tp1168
a(g7
I0
F0.0
tp1169
a(g9
I1
F50.0
tp1170
a(g11
I0
F0.0
tp1171
a(g13
I0
F0.0
tp1172
a(g15
I0
F0.0
tp1173
a(g17
I0
F0.0
tp1174
a(g19
I0
F0.0
tp1175
a(g21
I0
F0.0
tp1176
a(g23
I0
F0.0
tp1177
a(g25
I0
F0.0
tp1178
a(g27
I0
F0.0
tp1179
a(g29
I0
F0.0
tp1180
a(g31
I1
F50.0
tp1181
a(g33
I0
F0.0
tp1182
a(g35
I0
F0.0
tp1183
a(g37
I0
F0.0
tp1184
a(g39
I0
F0.0
tp1185
a(g41
I0
F0.0
tp1186
asS'L66E'
p1187
(lp1188
(g3
I0
F0.0
tp1189
a(g5
I0
F0.0
tp1190
a(g7
I0
F0.0
tp1191
a(g9
I0
F0.0
tp1192
a(g11
I1
F50.0
tp1193
a(g13
I0
F0.0
tp1194
a(g15
I0
F0.0
tp1195
a(g17
I0
F0.0
tp1196
a(g19
I0
F0.0
tp1197
a(g21
I0
F0.0
tp1198
a(g23
I0
F0.0
tp1199
a(g25
I0
F0.0
tp1200
a(g27
I0
F0.0
tp1201
a(g29
I0
F0.0
tp1202
a(g31
I0
F0.0
tp1203
a(g33
I1
F50.0
tp1204
a(g35
I0
F0.0
tp1205
a(g37
I0
F0.0
tp1206
a(g39
I0
F0.0
tp1207
a(g41
I0
F0.0
tp1208
asS'L66F'
p1209
(lp1210
(g3
I0
F0.0
tp1211
a(g5
I0
F0.0
tp1212
a(g7
I0
F0.0
tp1213
a(g9
I0
F0.0
tp1214
a(g11
I0
F0.0
tp1215
a(g13
I0
F0.0
tp1216
a(g15
I0
F0.0
tp1217
a(g17
I0
F0.0
tp1218
a(g19
I0
F0.0
tp1219
a(g21
I0
F0.0
tp1220
a(g23
I0
F0.0
tp1221
a(g25
I0
F0.0
tp1222
a(g27
I1
F100.0
tp1223
a(g29
I0
F0.0
tp1224
a(g31
I0
F0.0
tp1225
a(g33
I0
F0.0
tp1226
a(g35
I0
F0.0
tp1227
a(g37
I0
F0.0
tp1228
a(g39
I0
F0.0
tp1229
a(g41
I0
F0.0
tp1230
asS'L66G'
p1231
(lp1232
(g3
I0
F0.0
tp1233
a(g5
I0
F0.0
tp1234
a(g7
I0
F0.0
tp1235
a(g9
I0
F0.0
tp1236
a(g11
I1
F100.0
tp1237
a(g13
I0
F0.0
tp1238
a(g15
I0
F0.0
tp1239
a(g17
I0
F0.0
tp1240
a(g19
I0
F0.0
tp1241
a(g21
I0
F0.0
tp1242
a(g23
I0
F0.0
tp1243
a(g25
I0
F0.0
tp1244
a(g27
I0
F0.0
tp1245
a(g29
I0
F0.0
tp1246
a(g31
I0
F0.0
tp1247
a(g33
I0
F0.0
tp1248
a(g35
I0
F0.0
tp1249
a(g37
I0
F0.0
tp1250
a(g39
I0
F0.0
tp1251
a(g41
I0
F0.0
tp1252
asS'L66A'
p1253
(lp1254
(g3
I0
F0.0
tp1255
a(g5
I0
F0.0
tp1256
a(g7
I8
F61.54
tp1257
a(g9
I0
F0.0
tp1258
a(g11
I0
F0.0
tp1259
a(g13
I0
F0.0
tp1260
a(g15
I0
F0.0
tp1261
a(g17
I0
F0.0
tp1262
a(g19
I0
F0.0
tp1263
a(g21
I0
F0.0
tp1264
a(g23
I0
F0.0
tp1265
a(g25
I0
F0.0
tp1266
a(g27
I0
F0.0
tp1267
a(g29
I0
F0.0
tp1268
a(g31
I0
F0.0
tp1269
a(g33
I5
F38.46
tp1270
a(g35
I0
F0.0
tp1271
a(g37
I0
F0.0
tp1272
a(g39
I0
F0.0
tp1273
a(g41
I0
F0.0
tp1274
asS'L66B'
p1275
(lp1276
(g3
I0
F0.0
tp1277
a(g5
I0
F0.0
tp1278
a(g7
I0
F0.0
tp1279
a(g9
I0
F0.0
tp1280
a(g11
I0
F0.0
tp1281
a(g13
I1
F10.0
tp1282
a(g15
I0
F0.0
tp1283
a(g17
I0
F0.0
tp1284
a(g19
I0
F0.0
tp1285
a(g21
I0
F0.0
tp1286
a(g23
I0
F0.0
tp1287
a(g25
I0
F0.0
tp1288
a(g27
I0
F0.0
tp1289
a(g29
I1
F10.0
tp1290
a(g31
I0
F0.0
tp1291
a(g33
I5
F50.0
tp1292
a(g35
I3
F30.0
tp1293
a(g37
I0
F0.0
tp1294
a(g39
I0
F0.0
tp1295
a(g41
I0
F0.0
tp1296
asS'L66C'
p1297
(lp1298
(g3
I0
F0.0
tp1299
a(g5
I0
F0.0
tp1300
a(g7
I0
F0.0
tp1301
a(g9
I0
F0.0
tp1302
a(g11
I0
F0.0
tp1303
a(g13
I0
F0.0
tp1304
a(g15
I0
F0.0
tp1305
a(g17
I0
F0.0
tp1306
a(g19
I0
F0.0
tp1307
a(g21
I0
F0.0
tp1308
a(g23
I0
F0.0
tp1309
a(g25
I1
F50.0
tp1310
a(g27
I0
F0.0
tp1311
a(g29
I0
F0.0
tp1312
a(g31
I0
F0.0
tp1313
a(g33
I0
F0.0
tp1314
a(g35
I1
F50.0
tp1315
a(g37
I0
F0.0
tp1316
a(g39
I0
F0.0
tp1317
a(g41
I0
F0.0
tp1318
asS'L66H'
p1319
(lp1320
(g3
I0
F0.0
tp1321
a(g5
I0
F0.0
tp1322
a(g7
I0
F0.0
tp1323
a(g9
I0
F0.0
tp1324
a(g11
I0
F0.0
tp1325
a(g13
I1
F100.0
tp1326
a(g15
I0
F0.0
tp1327
a(g17
I0
F0.0
tp1328
a(g19
I0
F0.0
tp1329
a(g21
I0
F0.0
tp1330
a(g23
I0
F0.0
tp1331
a(g25
I0
F0.0
tp1332
a(g27
I0
F0.0
tp1333
a(g29
I0
F0.0
tp1334
a(g31
I0
F0.0
tp1335
a(g33
I0
F0.0
tp1336
a(g35
I0
F0.0
tp1337
a(g37
I0
F0.0
tp1338
a(g39
I0
F0.0
tp1339
a(g41
I0
F0.0
tp1340
asS'L110'
p1341
(lp1342
(g3
I25
F13.97
tp1343
a(g5
I1
F0.56
tp1344
a(g7
I52
F29.05
tp1345
a(g9
I1
F0.56
tp1346
a(g11
I0
F0.0
tp1347
a(g13
I14
F7.82
tp1348
a(g15
I1
F0.56
tp1349
a(g17
I0
F0.0
tp1350
a(g19
I5
F2.79
tp1351
a(g21
I2
F1.12
tp1352
a(g23
I2
F1.12
tp1353
a(g25
I0
F0.0
tp1354
a(g27
I2
F1.12
tp1355
a(g29
I2
F1.12
tp1356
a(g31
I0
F0.0
tp1357
a(g33
I5
F2.79
tp1358
a(g35
I1
F0.56
tp1359
a(g37
I60
F33.52
tp1360
a(g39
I1
F0.56
tp1361
a(g41
I0
F0.0
tp1362
asS'L111'
p1363
(lp1364
(g3
I0
F0.0
tp1365
a(g5
I0
F0.0
tp1366
a(g7
I0
F0.0
tp1367
a(g9
I0
F0.0
tp1368
a(g11
I0
F0.0
tp1369
a(g13
I0
F0.0
tp1370
a(g15
I0
F0.0
tp1371
a(g17
I0
F0.0
tp1372
a(g19
I0
F0.0
tp1373
a(g21
I0
F0.0
tp1374
a(g23
I0
F0.0
tp1375
a(g25
I0
F0.0
tp1376
a(g27
I0
F0.0
tp1377
a(g29
I0
F0.0
tp1378
a(g31
I0
F0.0
tp1379
a(g33
I0
F0.0
tp1380
a(g35
I0
F0.0
tp1381
a(g37
I0
F0.0
tp1382
a(g39
I0
F0.0
tp1383
a(g41
I0
F0.0
tp1384
asS'L20'
p1385
(lp1386
(g3
I16
F0.27
tp1387
a(g5
I1
F0.02
tp1388
a(g7
I0
F0.0
tp1389
a(g9
I0
F0.0
tp1390
a(g11
I6
F0.1
tp1391
a(g13
I2
F0.03
tp1392
a(g15
I0
F0.0
tp1393
a(g17
I106
F1.77
tp1394
a(g19
I34
F0.57
tp1395
a(g21
I1
F0.02
tp1396
a(g23
I0
F0.0
tp1397
a(g25
I11
F0.18
tp1398
a(g27
I0
F0.0
tp1399
a(g29
I0
F0.0
tp1400
a(g31
I8
F0.13
tp1401
a(g33
I1791
F29.99
tp1402
a(g35
I3979
F66.63
tp1403
a(g37
I0
F0.0
tp1404
a(g39
I0
F0.0
tp1405
a(g41
I0
F0.0
tp1406
asS'L21'
p1407
(lp1408
(g3
I0
F0.0
tp1409
a(g5
I0
F0.0
tp1410
a(g7
I0
F0.0
tp1411
a(g9
I0
F0.0
tp1412
a(g11
I53
F0.88
tp1413
a(g13
I0
F0.0
tp1414
a(g15
I1
F0.02
tp1415
a(g17
I3213
F53.65
tp1416
a(g19
I1
F0.02
tp1417
a(g21
I982
F16.4
tp1418
a(g23
I1584
F26.45
tp1419
a(g25
I0
F0.0
tp1420
a(g27
I1
F0.02
tp1421
a(g29
I0
F0.0
tp1422
a(g31
I1
F0.02
tp1423
a(g33
I0
F0.0
tp1424
a(g35
I13
F0.22
tp1425
a(g37
I126
F2.1
tp1426
a(g39
I0
F0.0
tp1427
a(g41
I2
F0.03
tp1428
asS'L39A'
p1429
(lp1430
(g3
I0
F0.0
tp1431
a(g5
I0
F0.0
tp1432
a(g7
I0
F0.0
tp1433
a(g9
I0
F0.0
tp1434
a(g11
I0
F0.0
tp1435
a(g13
I0
F0.0
tp1436
a(g15
I0
F0.0
tp1437
a(g17
I0
F0.0
tp1438
a(g19
I0
F0.0
tp1439
a(g21
I0
F0.0
tp1440
a(g23
I0
F0.0
tp1441
a(g25
I0
F0.0
tp1442
a(g27
I4
F100.0
tp1443
a(g29
I0
F0.0
tp1444
a(g31
I0
F0.0
tp1445
a(g33
I0
F0.0
tp1446
a(g35
I0
F0.0
tp1447
a(g37
I0
F0.0
tp1448
a(g39
I0
F0.0
tp1449
a(g41
I0
F0.0
tp1450
asS'L23'
p1451
(lp1452
(g3
I2
F0.03
tp1453
a(g5
I5950
F98.48
tp1454
a(g7
I0
F0.0
tp1455
a(g9
I0
F0.0
tp1456
a(g11
I1
F0.02
tp1457
a(g13
I2
F0.03
tp1458
a(g15
I1
F0.02
tp1459
a(g17
I2
F0.03
tp1460
a(g19
I7
F0.12
tp1461
a(g21
I0
F0.0
tp1462
a(g23
I0
F0.0
tp1463
a(g25
I0
F0.0
tp1464
a(g27
I0
F0.0
tp1465
a(g29
I1
F0.02
tp1466
a(g31
I9
F0.15
tp1467
a(g33
I10
F0.17
tp1468
a(g35
I3
F0.05
tp1469
a(g37
I1
F0.02
tp1470
a(g39
I0
F0.0
tp1471
a(g41
I47
F0.78
tp1472
asS'L22'
p1473
(lp1474
(g3
I14
F0.23
tp1475
a(g5
I3
F0.05
tp1476
a(g7
I0
F0.0
tp1477
a(g9
I0
F0.0
tp1478
a(g11
I15
F0.25
tp1479
a(g13
I2
F0.03
tp1480
a(g15
I0
F0.0
tp1481
a(g17
I18
F0.3
tp1482
a(g19
I2
F0.03
tp1483
a(g21
I0
F0.0
tp1484
a(g23
I1
F0.02
tp1485
a(g25
I85
F1.41
tp1486
a(g27
I8
F0.13
tp1487
a(g29
I0
F0.0
tp1488
a(g31
I61
F1.01
tp1489
a(g33
I2748
F45.48
tp1490
a(g35
I3078
F50.94
tp1491
a(g37
I0
F0.0
tp1492
a(g39
I0
F0.0
tp1493
a(g41
I2
F0.03
tp1494
asS'L25'
p1495
(lp1496
(g3
I3712
F61.44
tp1497
a(g5
I5
F0.08
tp1498
a(g7
I2
F0.03
tp1499
a(g9
I1
F0.02
tp1500
a(g11
I4
F0.07
tp1501
a(g13
I15
F0.25
tp1502
a(g15
I3
F0.05
tp1503
a(g17
I0
F0.0
tp1504
a(g19
I1
F0.02
tp1505
a(g21
I38
F0.63
tp1506
a(g23
I0
F0.0
tp1507
a(g25
I0
F0.0
tp1508
a(g27
I17
F0.28
tp1509
a(g29
I2
F0.03
tp1510
a(g31
I4
F0.07
tp1511
a(g33
I2074
F34.33
tp1512
a(g35
I97
F1.61
tp1513
a(g37
I62
F1.03
tp1514
a(g39
I0
F0.0
tp1515
a(g41
I1
F0.02
tp1516
asS'L24'
p1517
(lp1518
(g3
I7
F0.12
tp1519
a(g5
I4
F0.07
tp1520
a(g7
I1
F0.02
tp1521
a(g9
I3
F0.05
tp1522
a(g11
I2
F0.03
tp1523
a(g13
I17
F0.28
tp1524
a(g15
I67
F1.11
tp1525
a(g17
I56
F0.93
tp1526
a(g19
I1406
F23.27
tp1527
a(g21
I17
F0.28
tp1528
a(g23
I3
F0.05
tp1529
a(g25
I5
F0.08
tp1530
a(g27
I0
F0.0
tp1531
a(g29
I37
F0.61
tp1532
a(g31
I2967
F49.11
tp1533
a(g33
I1196
F19.79
tp1534
a(g35
I243
F4.02
tp1535
a(g37
I2
F0.03
tp1536
a(g39
I0
F0.0
tp1537
a(g41
I0
F0.0
tp1538
asS'L27'
p1539
(lp1540
(g3
I8
F0.13
tp1541
a(g5
I0
F0.0
tp1542
a(g7
I16
F0.26
tp1543
a(g9
I540
F8.94
tp1544
a(g11
I0
F0.0
tp1545
a(g13
I79
F1.31
tp1546
a(g15
I8
F0.13
tp1547
a(g17
I21
F0.35
tp1548
a(g19
I352
F5.83
tp1549
a(g21
I11
F0.18
tp1550
a(g23
I1
F0.02
tp1551
a(g25
I12
F0.2
tp1552
a(g27
I4
F0.07
tp1553
a(g29
I2955
F48.91
tp1554
a(g31
I7
F0.12
tp1555
a(g33
I1529
F25.31
tp1556
a(g35
I479
F7.93
tp1557
a(g37
I6
F0.1
tp1558
a(g39
I0
F0.0
tp1559
a(g41
I5
F0.08
tp1560
asS'L26'
p1561
(lp1562
(g3
I6
F0.1
tp1563
a(g5
I2
F0.03
tp1564
a(g7
I3
F0.05
tp1565
a(g9
I0
F0.0
tp1566
a(g11
I1
F0.02
tp1567
a(g13
I22
F0.36
tp1568
a(g15
I0
F0.0
tp1569
a(g17
I9
F0.15
tp1570
a(g19
I1
F0.02
tp1571
a(g21
I11
F0.18
tp1572
a(g23
I2
F0.03
tp1573
a(g25
I72
F1.19
tp1574
a(g27
I0
F0.0
tp1575
a(g29
I9
F0.15
tp1576
a(g31
I29
F0.48
tp1577
a(g33
I5779
F95.65
tp1578
a(g35
I82
F1.36
tp1579
a(g37
I6
F0.1
tp1580
a(g39
I0
F0.0
tp1581
a(g41
I2
F0.03
tp1582
asS'L29'
p1583
(lp1584
(g3
I19
F0.32
tp1585
a(g5
I3
F0.05
tp1586
a(g7
I32
F0.53
tp1587
a(g9
I5
F0.08
tp1588
a(g11
I4
F0.07
tp1589
a(g13
I1624
F26.97
tp1590
a(g15
I7
F0.12
tp1591
a(g17
I1377
F22.87
tp1592
a(g19
I35
F0.58
tp1593
a(g21
I10
F0.17
tp1594
a(g23
I0
F0.0
tp1595
a(g25
I26
F0.43
tp1596
a(g27
I6
F0.1
tp1597
a(g29
I357
F5.93
tp1598
a(g31
I154
F2.56
tp1599
a(g33
I1457
F24.2
tp1600
a(g35
I470
F7.81
tp1601
a(g37
I427
F7.09
tp1602
a(g39
I0
F0.0
tp1603
a(g41
I4
F0.07
tp1604
asS'L28'
p1605
(lp1606
(g3
I14
F0.28
tp1607
a(g5
I0
F0.0
tp1608
a(g7
I1130
F22.47
tp1609
a(g9
I65
F1.29
tp1610
a(g11
I22
F0.44
tp1611
a(g13
I99
F1.97
tp1612
a(g15
I82
F1.63
tp1613
a(g17
I154
F3.06
tp1614
a(g19
I15
F0.3
tp1615
a(g21
I9
F0.18
tp1616
a(g23
I3
F0.06
tp1617
a(g25
I1643
F32.68
tp1618
a(g27
I6
F0.12
tp1619
a(g29
I1
F0.02
tp1620
a(g31
I7
F0.14
tp1621
a(g33
I520
F10.34
tp1622
a(g35
I593
F11.79
tp1623
a(g37
I366
F7.28
tp1624
a(g39
I0
F0.0
tp1625
a(g41
I292
F5.81
tp1626
asS'L43'
p1627
(lp1628
(g3
I112
F1.85
tp1629
a(g5
I3
F0.05
tp1630
a(g7
I0
F0.0
tp1631
a(g9
I3
F0.05
tp1632
a(g11
I15
F0.25
tp1633
a(g13
I76
F1.26
tp1634
a(g15
I2
F0.03
tp1635
a(g17
I53
F0.88
tp1636
a(g19
I0
F0.0
tp1637
a(g21
I454
F7.51
tp1638
a(g23
I0
F0.0
tp1639
a(g25
I2
F0.03
tp1640
a(g27
I788
F13.04
tp1641
a(g29
I10
F0.17
tp1642
a(g31
I6
F0.1
tp1643
a(g33
I3960
F65.54
tp1644
a(g35
I552
F9.14
tp1645
a(g37
I4
F0.07
tp1646
a(g39
I0
F0.0
tp1647
a(g41
I0
F0.0
tp1648
asS'L42'
p1649
(lp1650
(g3
I163
F2.7
tp1651
a(g5
I0
F0.0
tp1652
a(g7
I1
F0.02
tp1653
a(g9
I202
F3.34
tp1654
a(g11
I63
F1.04
tp1655
a(g13
I550
F9.1
tp1656
a(g15
I466
F7.71
tp1657
a(g17
I3
F0.05
tp1658
a(g19
I634
F10.49
tp1659
a(g21
I9
F0.15
tp1660
a(g23
I0
F0.0
tp1661
a(g25
I89
F1.47
tp1662
a(g27
I3
F0.05
tp1663
a(g29
I2565
F42.45
tp1664
a(g31
I25
F0.41
tp1665
a(g33
I540
F8.94
tp1666
a(g35
I711
F11.77
tp1667
a(g37
I3
F0.05
tp1668
a(g39
I0
F0.0
tp1669
a(g41
I2
F0.03
tp1670
asS'L41'
p1671
(lp1672
(g3
I8
F0.13
tp1673
a(g5
I0
F0.0
tp1674
a(g7
I966
F15.99
tp1675
a(g9
I137
F2.27
tp1676
a(g11
I0
F0.0
tp1677
a(g13
I4491
F74.33
tp1678
a(g15
I149
F2.47
tp1679
a(g17
I0
F0.0
tp1680
a(g19
I0
F0.0
tp1681
a(g21
I28
F0.46
tp1682
a(g23
I0
F0.0
tp1683
a(g25
I48
F0.79
tp1684
a(g27
I22
F0.36
tp1685
a(g29
I5
F0.08
tp1686
a(g31
I71
F1.18
tp1687
a(g33
I32
F0.53
tp1688
a(g35
I0
F0.0
tp1689
a(g37
I4
F0.07
tp1690
a(g39
I74
F1.22
tp1691
a(g41
I1
F0.02
tp1692
asS'L40'
p1693
(lp1694
(g3
I28
F0.46
tp1695
a(g5
I0
F0.0
tp1696
a(g7
I0
F0.0
tp1697
a(g9
I1
F0.02
tp1698
a(g11
I0
F0.0
tp1699
a(g13
I6
F0.1
tp1700
a(g15
I3
F0.05
tp1701
a(g17
I1
F0.02
tp1702
a(g19
I27
F0.45
tp1703
a(g21
I20
F0.33
tp1704
a(g23
I5
F0.08
tp1705
a(g25
I0
F0.0
tp1706
a(g27
I4771
F78.96
tp1707
a(g29
I222
F3.67
tp1708
a(g31
I8
F0.13
tp1709
a(g33
I879
F14.55
tp1710
a(g35
I62
F1.03
tp1711
a(g37
I3
F0.05
tp1712
a(g39
I0
F0.0
tp1713
a(g41
I0
F0.0
tp1714
asS'L47'
p1715
(lp1716
(g3
I0
F0.0
tp1717
a(g5
I2
F0.03
tp1718
a(g7
I0
F0.0
tp1719
a(g9
I0
F0.0
tp1720
a(g11
I3
F0.05
tp1721
a(g13
I0
F0.0
tp1722
a(g15
I0
F0.0
tp1723
a(g17
I14
F0.23
tp1724
a(g19
I0
F0.0
tp1725
a(g21
I4659
F77.11
tp1726
a(g23
I9
F0.15
tp1727
a(g25
I0
F0.0
tp1728
a(g27
I3
F0.05
tp1729
a(g29
I3
F0.05
tp1730
a(g31
I5
F0.08
tp1731
a(g33
I2
F0.03
tp1732
a(g35
I0
F0.0
tp1733
a(g37
I43
F0.71
tp1734
a(g39
I1295
F21.43
tp1735
a(g41
I1
F0.02
tp1736
asS'L46'
p1737
(lp1738
(g3
I104
F1.72
tp1739
a(g5
I1
F0.02
tp1740
a(g7
I3
F0.05
tp1741
a(g9
I1
F0.02
tp1742
a(g11
I42
F0.7
tp1743
a(g13
I474
F7.85
tp1744
a(g15
I18
F0.3
tp1745
a(g17
I28
F0.46
tp1746
a(g19
I6
F0.1
tp1747
a(g21
I3911
F64.73
tp1748
a(g23
I7
F0.12
tp1749
a(g25
I5
F0.08
tp1750
a(g27
I309
F5.11
tp1751
a(g29
I2
F0.03
tp1752
a(g31
I832
F13.77
tp1753
a(g33
I22
F0.36
tp1754
a(g35
I166
F2.75
tp1755
a(g37
I79
F1.31
tp1756
a(g39
I0
F0.0
tp1757
a(g41
I26
F0.43
tp1758
asS'L45'
p1759
(lp1760
(g3
I17
F0.28
tp1761
a(g5
I0
F0.0
tp1762
a(g7
I0
F0.0
tp1763
a(g9
I30
F0.5
tp1764
a(g11
I0
F0.0
tp1765
a(g13
I1
F0.02
tp1766
a(g15
I5
F0.08
tp1767
a(g17
I7
F0.12
tp1768
a(g19
I4474
F74.05
tp1769
a(g21
I2
F0.03
tp1770
a(g23
I4
F0.07
tp1771
a(g25
I32
F0.53
tp1772
a(g27
I7
F0.12
tp1773
a(g29
I474
F7.85
tp1774
a(g31
I493
F8.16
tp1775
a(g33
I21
F0.35
tp1776
a(g35
I461
F7.63
tp1777
a(g37
I3
F0.05
tp1778
a(g39
I0
F0.0
tp1779
a(g41
I0
F0.0
tp1780
asS'L44'
p1781
(lp1782
(g3
I2
F0.03
tp1783
a(g5
I0
F0.0
tp1784
a(g7
I0
F0.0
tp1785
a(g9
I0
F0.0
tp1786
a(g11
I493
F8.16
tp1787
a(g13
I0
F0.0
tp1788
a(g15
I1
F0.02
tp1789
a(g17
I199
F3.29
tp1790
a(g19
I0
F0.0
tp1791
a(g21
I19
F0.31
tp1792
a(g23
I1
F0.02
tp1793
a(g25
I50
F0.83
tp1794
a(g27
I4959
F82.08
tp1795
a(g29
I0
F0.0
tp1796
a(g31
I0
F0.0
tp1797
a(g33
I11
F0.18
tp1798
a(g35
I7
F0.12
tp1799
a(g37
I290
F4.8
tp1800
a(g39
I0
F0.0
tp1801
a(g41
I1
F0.02
tp1802
asS'L49'
p1803
(lp1804
(g3
I2
F0.03
tp1805
a(g5
I13
F0.22
tp1806
a(g7
I9
F0.15
tp1807
a(g9
I24
F0.4
tp1808
a(g11
I79
F1.31
tp1809
a(g13
I435
F7.2
tp1810
a(g15
I108
F1.79
tp1811
a(g17
I6
F0.1
tp1812
a(g19
I241
F3.99
tp1813
a(g21
I4
F0.07
tp1814
a(g23
I1
F0.02
tp1815
a(g25
I16
F0.26
tp1816
a(g27
I0
F0.0
tp1817
a(g29
I3
F0.05
tp1818
a(g31
I14
F0.23
tp1819
a(g33
I161
F2.66
tp1820
a(g35
I9
F0.15
tp1821
a(g37
I6
F0.1
tp1822
a(g39
I11
F0.18
tp1823
a(g41
I4894
F81.0
tp1824
asS'L48'
p1825
(lp1826
(g3
I0
F0.0
tp1827
a(g5
I0
F0.0
tp1828
a(g7
I0
F0.0
tp1829
a(g9
I0
F0.0
tp1830
a(g11
I8
F0.13
tp1831
a(g13
I0
F0.0
tp1832
a(g15
I0
F0.0
tp1833
a(g17
I5628
F93.15
tp1834
a(g19
I3
F0.05
tp1835
a(g21
I28
F0.46
tp1836
a(g23
I64
F1.06
tp1837
a(g25
I1
F0.02
tp1838
a(g27
I0
F0.0
tp1839
a(g29
I0
F0.0
tp1840
a(g31
I0
F0.0
tp1841
a(g33
I0
F0.0
tp1842
a(g35
I10
F0.17
tp1843
a(g37
I290
F4.8
tp1844
a(g39
I0
F0.0
tp1845
a(g41
I4
F0.07
tp1846
asS'L109'
p1847
(lp1848
(g3
I1440
F79.73
tp1849
a(g5
I0
F0.0
tp1850
a(g7
I9
F0.5
tp1851
a(g9
I11
F0.61
tp1852
a(g11
I1
F0.06
tp1853
a(g13
I25
F1.38
tp1854
a(g15
I1
F0.06
tp1855
a(g17
I1
F0.06
tp1856
a(g19
I11
F0.61
tp1857
a(g21
I4
F0.22
tp1858
a(g23
I0
F0.0
tp1859
a(g25
I0
F0.0
tp1860
a(g27
I207
F11.46
tp1861
a(g29
I2
F0.11
tp1862
a(g31
I2
F0.11
tp1863
a(g33
I10
F0.55
tp1864
a(g35
I66
F3.65
tp1865
a(g37
I6
F0.33
tp1866
a(g39
I0
F0.0
tp1867
a(g41
I3
F0.17
tp1868
asS'L108'
p1869
(lp1870
(g3
I12
F0.44
tp1871
a(g5
I0
F0.0
tp1872
a(g7
I4
F0.15
tp1873
a(g9
I3
F0.11
tp1874
a(g11
I0
F0.0
tp1875
a(g13
I22
F0.81
tp1876
a(g15
I4
F0.15
tp1877
a(g17
I0
F0.0
tp1878
a(g19
I1
F0.04
tp1879
a(g21
I6
F0.22
tp1880
a(g23
I0
F0.0
tp1881
a(g25
I0
F0.0
tp1882
a(g27
I7
F0.26
tp1883
a(g29
I202
F7.46
tp1884
a(g31
I2426
F89.62
tp1885
a(g33
I8
F0.3
tp1886
a(g35
I2
F0.07
tp1887
a(g37
I3
F0.11
tp1888
a(g39
I1
F0.04
tp1889
a(g41
I0
F0.0
tp1890
asS'L101'
p1891
(lp1892
(g3
I4
F0.08
tp1893
a(g5
I0
F0.0
tp1894
a(g7
I1
F0.02
tp1895
a(g9
I2
F0.04
tp1896
a(g11
I0
F0.0
tp1897
a(g13
I5027
F99.47
tp1898
a(g15
I0
F0.0
tp1899
a(g17
I0
F0.0
tp1900
a(g19
I1
F0.02
tp1901
a(g21
I0
F0.0
tp1902
a(g23
I0
F0.0
tp1903
a(g25
I0
F0.0
tp1904
a(g27
I1
F0.02
tp1905
a(g29
I1
F0.02
tp1906
a(g31
I0
F0.0
tp1907
a(g33
I2
F0.04
tp1908
a(g35
I4
F0.08
tp1909
a(g37
I1
F0.02
tp1910
a(g39
I0
F0.0
tp1911
a(g41
I1
F0.02
tp1912
asS'L100'
p1913
(lp1914
(g3
I1160
F22.67
tp1915
a(g5
I3
F0.06
tp1916
a(g7
I5
F0.1
tp1917
a(g9
I0
F0.0
tp1918
a(g11
I0
F0.0
tp1919
a(g13
I3135
F61.27
tp1920
a(g15
I0
F0.0
tp1921
a(g17
I0
F0.0
tp1922
a(g19
I0
F0.0
tp1923
a(g21
I2
F0.04
tp1924
a(g23
I0
F0.0
tp1925
a(g25
I1
F0.02
tp1926
a(g27
I10
F0.2
tp1927
a(g29
I40
F0.78
tp1928
a(g31
I5
F0.1
tp1929
a(g33
I676
F13.21
tp1930
a(g35
I65
F1.27
tp1931
a(g37
I6
F0.12
tp1932
a(g39
I0
F0.0
tp1933
a(g41
I0
F0.0
tp1934
asS'L103'
p1935
(lp1936
(g3
I2
F0.04
tp1937
a(g5
I0
F0.0
tp1938
a(g7
I1
F0.02
tp1939
a(g9
I21
F0.43
tp1940
a(g11
I0
F0.0
tp1941
a(g13
I2
F0.04
tp1942
a(g15
I1
F0.02
tp1943
a(g17
I1
F0.02
tp1944
a(g19
I4691
F95.56
tp1945
a(g21
I6
F0.12
tp1946
a(g23
I3
F0.06
tp1947
a(g25
I76
F1.55
tp1948
a(g27
I1
F0.02
tp1949
a(g29
I14
F0.29
tp1950
a(g31
I52
F1.06
tp1951
a(g33
I3
F0.06
tp1952
a(g35
I13
F0.26
tp1953
a(g37
I1
F0.02
tp1954
a(g39
I0
F0.0
tp1955
a(g41
I3
F0.06
tp1956
asS'L102'
p1957
(lp1958
(g3
I15
F0.3
tp1959
a(g5
I0
F0.0
tp1960
a(g7
I2
F0.04
tp1961
a(g9
I0
F0.0
tp1962
a(g11
I0
F0.0
tp1963
a(g13
I0
F0.0
tp1964
a(g15
I0
F0.0
tp1965
a(g17
I4
F0.08
tp1966
a(g19
I2
F0.04
tp1967
a(g21
I2
F0.04
tp1968
a(g23
I0
F0.0
tp1969
a(g25
I1
F0.02
tp1970
a(g27
I4
F0.08
tp1971
a(g29
I1
F0.02
tp1972
a(g31
I0
F0.0
tp1973
a(g33
I15
F0.3
tp1974
a(g35
I4942
F98.96
tp1975
a(g37
I0
F0.0
tp1976
a(g39
I0
F0.0
tp1977
a(g41
I0
F0.0
tp1978
asS'L105'
p1979
(lp1980
(g3
I12
F0.26
tp1981
a(g5
I1
F0.02
tp1982
a(g7
I34
F0.74
tp1983
a(g9
I4125
F89.42
tp1984
a(g11
I0
F0.0
tp1985
a(g13
I11
F0.24
tp1986
a(g15
I0
F0.0
tp1987
a(g17
I12
F0.26
tp1988
a(g19
I21
F0.46
tp1989
a(g21
I5
F0.11
tp1990
a(g23
I0
F0.0
tp1991
a(g25
I0
F0.0
tp1992
a(g27
I0
F0.0
tp1993
a(g29
I3
F0.07
tp1994
a(g31
I1
F0.02
tp1995
a(g33
I3
F0.07
tp1996
a(g35
I359
F7.78
tp1997
a(g37
I5
F0.11
tp1998
a(g39
I1
F0.02
tp1999
a(g41
I0
F0.0
tp2000
asS'L104'
p2001
(lp2002
(g3
I3
F0.06
tp2003
a(g5
I0
F0.0
tp2004
a(g7
I0
F0.0
tp2005
a(g9
I10
F0.21
tp2006
a(g11
I1
F0.02
tp2007
a(g13
I3
F0.06
tp2008
a(g15
I0
F0.0
tp2009
a(g17
I3
F0.06
tp2010
a(g19
I0
F0.0
tp2011
a(g21
I4564
F94.63
tp2012
a(g23
I1
F0.02
tp2013
a(g25
I0
F0.0
tp2014
a(g27
I1
F0.02
tp2015
a(g29
I0
F0.0
tp2016
a(g31
I20
F0.41
tp2017
a(g33
I2
F0.04
tp2018
a(g35
I0
F0.0
tp2019
a(g37
I201
F4.17
tp2020
a(g39
I0
F0.0
tp2021
a(g41
I0
F0.0
tp2022
asS'L107'
p2023
(lp2024
(g3
I4
F0.09
tp2025
a(g5
I0
F0.0
tp2026
a(g7
I4
F0.09
tp2027
a(g9
I12
F0.28
tp2028
a(g11
I1
F0.02
tp2029
a(g13
I283
F6.66
tp2030
a(g15
I0
F0.0
tp2031
a(g17
I8
F0.19
tp2032
a(g19
I3778
F88.87
tp2033
a(g21
I0
F0.0
tp2034
a(g23
I0
F0.0
tp2035
a(g25
I32
F0.75
tp2036
a(g27
I0
F0.0
tp2037
a(g29
I7
F0.16
tp2038
a(g31
I71
F1.67
tp2039
a(g33
I13
F0.31
tp2040
a(g35
I17
F0.4
tp2041
a(g37
I4
F0.09
tp2042
a(g39
I0
F0.0
tp2043
a(g41
I0
F0.0
tp2044
asS'L106'
p2045
(lp2046
(g3
I0
F0.0
tp2047
a(g5
I0
F0.0
tp2048
a(g7
I0
F0.0
tp2049
a(g9
I3
F0.07
tp2050
a(g11
I0
F0.0
tp2051
a(g13
I0
F0.0
tp2052
a(g15
I2
F0.04
tp2053
a(g17
I2958
F66.12
tp2054
a(g19
I15
F0.34
tp2055
a(g21
I1032
F23.07
tp2056
a(g23
I31
F0.69
tp2057
a(g25
I3
F0.07
tp2058
a(g27
I3
F0.07
tp2059
a(g29
I0
F0.0
tp2060
a(g31
I11
F0.25
tp2061
a(g33
I9
F0.2
tp2062
a(g35
I10
F0.22
tp2063
a(g37
I383
F8.56
tp2064
a(g39
I3
F0.07
tp2065
a(g41
I0
F0.0
tp2066
asS'L95B'
p2067
(lp2068
(g3
I1
F0.37
tp2069
a(g5
I0
F0.0
tp2070
a(g7
I3
F1.1
tp2071
a(g9
I0
F0.0
tp2072
a(g11
I33
F12.13
tp2073
a(g13
I4
F1.47
tp2074
a(g15
I2
F0.74
tp2075
a(g17
I2
F0.74
tp2076
a(g19
I0
F0.0
tp2077
a(g21
I3
F1.1
tp2078
a(g23
I29
F10.66
tp2079
a(g25
I2
F0.74
tp2080
a(g27
I5
F1.84
tp2081
a(g29
I26
F9.56
tp2082
a(g31
I3
F1.1
tp2083
a(g33
I31
F11.4
tp2084
a(g35
I111
F40.81
tp2085
a(g37
I12
F4.41
tp2086
a(g39
I1
F0.37
tp2087
a(g41
I1
F0.37
tp2088
asS'L95C'
p2089
(lp2090
(g3
I33
F19.41
tp2091
a(g5
I0
F0.0
tp2092
a(g7
I0
F0.0
tp2093
a(g9
I1
F0.59
tp2094
a(g11
I76
F44.71
tp2095
a(g13
I3
F1.76
tp2096
a(g15
I1
F0.59
tp2097
a(g17
I1
F0.59
tp2098
a(g19
I1
F0.59
tp2099
a(g21
I0
F0.0
tp2100
a(g23
I2
F1.18
tp2101
a(g25
I0
F0.0
tp2102
a(g27
I0
F0.0
tp2103
a(g29
I0
F0.0
tp2104
a(g31
I2
F1.18
tp2105
a(g33
I10
F5.88
tp2106
a(g35
I29
F17.06
tp2107
a(g37
I9
F5.29
tp2108
a(g39
I0
F0.0
tp2109
a(g41
I0
F0.0
tp2110
asS'L95A'
p2111
(lp2112
(g3
I5
F1.04
tp2113
a(g5
I3
F0.62
tp2114
a(g7
I0
F0.0
tp2115
a(g9
I23
F4.78
tp2116
a(g11
I16
F3.33
tp2117
a(g13
I8
F1.66
tp2118
a(g15
I5
F1.04
tp2119
a(g17
I2
F0.42
tp2120
a(g19
I0
F0.0
tp2121
a(g21
I82
F17.05
tp2122
a(g23
I4
F0.83
tp2123
a(g25
I1
F0.21
tp2124
a(g27
I175
F36.38
tp2125
a(g29
I2
F0.42
tp2126
a(g31
I19
F3.95
tp2127
a(g33
I13
F2.7
tp2128
a(g35
I45
F9.36
tp2129
a(g37
I3
F0.62
tp2130
a(g39
I20
F4.16
tp2131
a(g41
I49
F10.19
tp2132
asS'L95F'
p2133
(lp2134
(g3
I3
F6.52
tp2135
a(g5
I0
F0.0
tp2136
a(g7
I0
F0.0
tp2137
a(g9
I1
F2.17
tp2138
a(g11
I0
F0.0
tp2139
a(g13
I4
F8.7
tp2140
a(g15
I1
F2.17
tp2141
a(g17
I0
F0.0
tp2142
a(g19
I0
F0.0
tp2143
a(g21
I32
F69.57
tp2144
a(g23
I0
F0.0
tp2145
a(g25
I0
F0.0
tp2146
a(g27
I1
F2.17
tp2147
a(g29
I2
F4.35
tp2148
a(g31
I1
F2.17
tp2149
a(g33
I0
F0.0
tp2150
a(g35
I0
F0.0
tp2151
a(g37
I0
F0.0
tp2152
a(g39
I0
F0.0
tp2153
a(g41
I0
F0.0
tp2154
asS'L95D'
p2155
(lp2156
(g3
I2
F2.35
tp2157
a(g5
I0
F0.0
tp2158
a(g7
I1
F1.18
tp2159
a(g9
I5
F5.88
tp2160
a(g11
I0
F0.0
tp2161
a(g13
I38
F44.71
tp2162
a(g15
I0
F0.0
tp2163
a(g17
I2
F2.35
tp2164
a(g19
I1
F1.18
tp2165
a(g21
I1
F1.18
tp2166
a(g23
I0
F0.0
tp2167
a(g25
I0
F0.0
tp2168
a(g27
I0
F0.0
tp2169
a(g29
I0
F0.0
tp2170
a(g31
I3
F3.53
tp2171
a(g33
I3
F3.53
tp2172
a(g35
I0
F0.0
tp2173
a(g37
I29
F34.12
tp2174
a(g39
I0
F0.0
tp2175
a(g41
I0
F0.0
tp2176
asS'L95E'
p2177
(lp2178
(g3
I1
F2.0
tp2179
a(g5
I0
F0.0
tp2180
a(g7
I2
F4.0
tp2181
a(g9
I1
F2.0
tp2182
a(g11
I0
F0.0
tp2183
a(g13
I7
F14.0
tp2184
a(g15
I1
F2.0
tp2185
a(g17
I1
F2.0
tp2186
a(g19
I31
F62.0
tp2187
a(g21
I2
F4.0
tp2188
a(g23
I0
F0.0
tp2189
a(g25
I0
F0.0
tp2190
a(g27
I0
F0.0
tp2191
a(g29
I2
F4.0
tp2192
a(g31
I2
F4.0
tp2193
a(g33
I0
F0.0
tp2194
a(g35
I0
F0.0
tp2195
a(g37
I0
F0.0
tp2196
a(g39
I0
F0.0
tp2197
a(g41
I0
F0.0
tp2198
asS'L36'
p2199
(lp2200
(g3
I1
F0.02
tp2201
a(g5
I10
F0.17
tp2202
a(g7
I2
F0.03
tp2203
a(g9
I0
F0.0
tp2204
a(g11
I599
F9.91
tp2205
a(g13
I0
F0.0
tp2206
a(g15
I38
F0.63
tp2207
a(g17
I11
F0.18
tp2208
a(g19
I0
F0.0
tp2209
a(g21
I383
F6.34
tp2210
a(g23
I1
F0.02
tp2211
a(g25
I58
F0.96
tp2212
a(g27
I0
F0.0
tp2213
a(g29
I0
F0.0
tp2214
a(g31
I0
F0.0
tp2215
a(g33
I11
F0.18
tp2216
a(g35
I0
F0.0
tp2217
a(g37
I456
F7.55
tp2218
a(g39
I1
F0.02
tp2219
a(g41
I4464
F73.88
tp2220
asS'L37'
p2221
(lp2222
(g3
I0
F0.0
tp2223
a(g5
I1
F0.02
tp2224
a(g7
I0
F0.0
tp2225
a(g9
I2
F0.03
tp2226
a(g11
I10
F0.17
tp2227
a(g13
I0
F0.0
tp2228
a(g15
I21
F0.35
tp2229
a(g17
I0
F0.0
tp2230
a(g19
I4
F0.07
tp2231
a(g21
I1125
F18.62
tp2232
a(g23
I8
F0.13
tp2233
a(g25
I0
F0.0
tp2234
a(g27
I3
F0.05
tp2235
a(g29
I4826
F79.87
tp2236
a(g31
I24
F0.4
tp2237
a(g33
I1
F0.02
tp2238
a(g35
I0
F0.0
tp2239
a(g37
I2
F0.03
tp2240
a(g39
I1
F0.02
tp2241
a(g41
I0
F0.0
tp2242
asS'L34'
p2243
(lp2244
(g3
I1106
F18.31
tp2245
a(g5
I7
F0.12
tp2246
a(g7
I35
F0.58
tp2247
a(g9
I372
F6.16
tp2248
a(g11
I22
F0.36
tp2249
a(g13
I40
F0.66
tp2250
a(g15
I1920
F31.78
tp2251
a(g17
I30
F0.5
tp2252
a(g19
I5
F0.08
tp2253
a(g21
I9
F0.15
tp2254
a(g23
I3
F0.05
tp2255
a(g25
I1429
F23.65
tp2256
a(g27
I3
F0.05
tp2257
a(g29
I79
F1.31
tp2258
a(g31
I12
F0.2
tp2259
a(g33
I359
F5.94
tp2260
a(g35
I125
F2.07
tp2261
a(g37
I28
F0.46
tp2262
a(g39
I0
F0.0
tp2263
a(g41
I446
F7.38
tp2264
asS'L35'
p2265
(lp2266
(g3
I0
F0.0
tp2267
a(g5
I3
F0.05
tp2268
a(g7
I1
F0.02
tp2269
a(g9
I0
F0.0
tp2270
a(g11
I1
F0.02
tp2271
a(g13
I2
F0.03
tp2272
a(g15
I3
F0.05
tp2273
a(g17
I0
F0.0
tp2274
a(g19
I0
F0.0
tp2275
a(g21
I15
F0.25
tp2276
a(g23
I0
F0.0
tp2277
a(g25
I1
F0.02
tp2278
a(g27
I0
F0.0
tp2279
a(g29
I0
F0.0
tp2280
a(g31
I8
F0.13
tp2281
a(g33
I0
F0.0
tp2282
a(g35
I0
F0.0
tp2283
a(g37
I0
F0.0
tp2284
a(g39
I6001
F99.32
tp2285
a(g41
I1
F0.02
tp2286
asS'L32'
p2287
(lp2288
(g3
I182
F3.01
tp2289
a(g5
I20
F0.33
tp2290
a(g7
I106
F1.75
tp2291
a(g9
I3
F0.05
tp2292
a(g11
I373
F6.17
tp2293
a(g13
I7
F0.12
tp2294
a(g15
I58
F0.96
tp2295
a(g17
I16
F0.26
tp2296
a(g19
I7
F0.12
tp2297
a(g21
I44
F0.73
tp2298
a(g23
I0
F0.0
tp2299
a(g25
I363
F6.01
tp2300
a(g27
I1
F0.02
tp2301
a(g29
I1
F0.02
tp2302
a(g31
I35
F0.58
tp2303
a(g33
I186
F3.08
tp2304
a(g35
I49
F0.81
tp2305
a(g37
I3
F0.05
tp2306
a(g39
I82
F1.36
tp2307
a(g41
I4502
F74.51
tp2308
asS'L33'
p2309
(lp2310
(g3
I441
F7.3
tp2311
a(g5
I1
F0.02
tp2312
a(g7
I0
F0.0
tp2313
a(g9
I0
F0.0
tp2314
a(g11
I36
F0.6
tp2315
a(g13
I2
F0.03
tp2316
a(g15
I0
F0.0
tp2317
a(g17
I273
F4.52
tp2318
a(g19
I1
F0.02
tp2319
a(g21
I3380
F55.94
tp2320
a(g23
I1433
F23.72
tp2321
a(g25
I2
F0.03
tp2322
a(g27
I0
F0.0
tp2323
a(g29
I0
F0.0
tp2324
a(g31
I0
F0.0
tp2325
a(g33
I5
F0.08
tp2326
a(g35
I3
F0.05
tp2327
a(g37
I455
F7.53
tp2328
a(g39
I1
F0.02
tp2329
a(g41
I5
F0.08
tp2330
asS'L30'
p2331
(lp2332
(g3
I11
F0.18
tp2333
a(g5
I3
F0.05
tp2334
a(g7
I185
F3.07
tp2335
a(g9
I11
F0.18
tp2336
a(g11
I24
F0.4
tp2337
a(g13
I383
F6.35
tp2338
a(g15
I101
F1.67
tp2339
a(g17
I241
F3.99
tp2340
a(g19
I753
F12.48
tp2341
a(g21
I13
F0.22
tp2342
a(g23
I9
F0.15
tp2343
a(g25
I1242
F20.59
tp2344
a(g27
I2
F0.03
tp2345
a(g29
I1
F0.02
tp2346
a(g31
I103
F1.71
tp2347
a(g33
I1536
F25.46
tp2348
a(g35
I83
F1.38
tp2349
a(g37
I944
F15.65
tp2350
a(g39
I0
F0.0
tp2351
a(g41
I378
F6.27
tp2352
asS'L31'
p2353
(lp2354
(g3
I15
F0.25
tp2355
a(g5
I2
F0.03
tp2356
a(g7
I116
F1.92
tp2357
a(g9
I4
F0.07
tp2358
a(g11
I5
F0.08
tp2359
a(g13
I150
F2.48
tp2360
a(g15
I43
F0.71
tp2361
a(g17
I74
F1.23
tp2362
a(g19
I161
F2.67
tp2363
a(g21
I2
F0.03
tp2364
a(g23
I1
F0.02
tp2365
a(g25
I1689
F27.97
tp2366
a(g27
I5
F0.08
tp2367
a(g29
I1
F0.02
tp2368
a(g31
I114
F1.89
tp2369
a(g33
I2028
F33.59
tp2370
a(g35
I1523
F25.22
tp2371
a(g37
I51
F0.84
tp2372
a(g39
I0
F0.0
tp2373
a(g41
I49
F0.81
tp2374
asS'L38'
p2375
(lp2376
(g3
I0
F0.0
tp2377
a(g5
I0
F0.0
tp2378
a(g7
I0
F0.0
tp2379
a(g9
I516
F8.54
tp2380
a(g11
I0
F0.0
tp2381
a(g13
I0
F0.0
tp2382
a(g15
I109
F1.8
tp2383
a(g17
I0
F0.0
tp2384
a(g19
I53
F0.88
tp2385
a(g21
I12
F0.2
tp2386
a(g23
I0
F0.0
tp2387
a(g25
I2
F0.03
tp2388
a(g27
I0
F0.0
tp2389
a(g29
I5292
F87.59
tp2390
a(g31
I22
F0.36
tp2391
a(g33
I0
F0.0
tp2392
a(g35
I0
F0.0
tp2393
a(g37
I0
F0.0
tp2394
a(g39
I8
F0.13
tp2395
a(g41
I3
F0.05
tp2396
asS'L39'
p2397
(lp2398
(g3
I2
F0.03
tp2399
a(g5
I0
F0.0
tp2400
a(g7
I0
F0.0
tp2401
a(g9
I101
F1.68
tp2402
a(g11
I0
F0.0
tp2403
a(g13
I9
F0.15
tp2404
a(g15
I1
F0.02
tp2405
a(g17
I9
F0.15
tp2406
a(g19
I5362
F89.28
tp2407
a(g21
I0
F0.0
tp2408
a(g23
I1
F0.02
tp2409
a(g25
I12
F0.2
tp2410
a(g27
I0
F0.0
tp2411
a(g29
I33
F0.55
tp2412
a(g31
I444
F7.39
tp2413
a(g33
I1
F0.02
tp2414
a(g35
I17
F0.28
tp2415
a(g37
I1
F0.02
tp2416
a(g39
I0
F0.0
tp2417
a(g41
I5
F0.08
tp2418
asS'L50'
p2419
(lp2420
(g3
I472
F7.81
tp2421
a(g5
I1
F0.02
tp2422
a(g7
I627
F10.38
tp2423
a(g9
I102
F1.69
tp2424
a(g11
I95
F1.57
tp2425
a(g13
I855
F14.15
tp2426
a(g15
I36
F0.6
tp2427
a(g17
I10
F0.17
tp2428
a(g19
I689
F11.4
tp2429
a(g21
I522
F8.64
tp2430
a(g23
I8
F0.13
tp2431
a(g25
I146
F2.42
tp2432
a(g27
I3
F0.05
tp2433
a(g29
I49
F0.81
tp2434
a(g31
I531
F8.79
tp2435
a(g33
I668
F11.06
tp2436
a(g35
I43
F0.71
tp2437
a(g37
I21
F0.35
tp2438
a(g39
I388
F6.42
tp2439
a(g41
I763
F12.63
tp2440
asS'L51'
p2441
(lp2442
(g3
I2055
F34.01
tp2443
a(g5
I0
F0.0
tp2444
a(g7
I8
F0.13
tp2445
a(g9
I3
F0.05
tp2446
a(g11
I5
F0.08
tp2447
a(g13
I148
F2.45
tp2448
a(g15
I1
F0.02
tp2449
a(g17
I97
F1.61
tp2450
a(g19
I26
F0.43
tp2451
a(g21
I15
F0.25
tp2452
a(g23
I143
F2.37
tp2453
a(g25
I8
F0.13
tp2454
a(g27
I6
F0.1
tp2455
a(g29
I0
F0.0
tp2456
a(g31
I6
F0.1
tp2457
a(g33
I49
F0.81
tp2458
a(g35
I2463
F40.76
tp2459
a(g37
I1004
F16.62
tp2460
a(g39
I0
F0.0
tp2461
a(g41
I0
F0.0
tp2462
asS'L52'
p2463
(lp2464
(g3
I19
F0.31
tp2465
a(g5
I1
F0.02
tp2466
a(g7
I19
F0.31
tp2467
a(g9
I4
F0.07
tp2468
a(g11
I27
F0.45
tp2469
a(g13
I2
F0.03
tp2470
a(g15
I0
F0.0
tp2471
a(g17
I6
F0.1
tp2472
a(g19
I184
F3.05
tp2473
a(g21
I4
F0.07
tp2474
a(g23
I0
F0.0
tp2475
a(g25
I500
F8.28
tp2476
a(g27
I4
F0.07
tp2477
a(g29
I3
F0.05
tp2478
a(g31
I5
F0.08
tp2479
a(g33
I5018
F83.05
tp2480
a(g35
I226
F3.74
tp2481
a(g37
I0
F0.0
tp2482
a(g39
I0
F0.0
tp2483
a(g41
I16
F0.26
tp2484
asS'L53'
p2485
(lp2486
(g3
I9
F0.15
tp2487
a(g5
I0
F0.0
tp2488
a(g7
I55
F0.91
tp2489
a(g9
I48
F0.8
tp2490
a(g11
I6
F0.1
tp2491
a(g13
I6
F0.1
tp2492
a(g15
I14
F0.23
tp2493
a(g17
I69
F1.14
tp2494
a(g19
I775
F12.84
tp2495
a(g21
I17
F0.28
tp2496
a(g23
I0
F0.0
tp2497
a(g25
I3033
F50.25
tp2498
a(g27
I1
F0.02
tp2499
a(g29
I149
F2.47
tp2500
a(g31
I320
F5.3
tp2501
a(g33
I358
F5.93
tp2502
a(g35
I986
F16.34
tp2503
a(g37
I0
F0.0
tp2504
a(g39
I0
F0.0
tp2505
a(g41
I182
F3.02
tp2506
asS'L54'
p2507
(lp2508
(g3
I0
F0.0
tp2509
a(g5
I0
F0.0
tp2510
a(g7
I0
F0.0
tp2511
a(g9
I1
F0.02
tp2512
a(g11
I5
F0.08
tp2513
a(g13
I30
F0.5
tp2514
a(g15
I3
F0.05
tp2515
a(g17
I3
F0.05
tp2516
a(g19
I1
F0.02
tp2517
a(g21
I3463
F57.62
tp2518
a(g23
I1
F0.02
tp2519
a(g25
I2
F0.03
tp2520
a(g27
I6
F0.1
tp2521
a(g29
I60
F1.0
tp2522
a(g31
I2179
F36.26
tp2523
a(g33
I197
F3.28
tp2524
a(g35
I4
F0.07
tp2525
a(g37
I45
F0.75
tp2526
a(g39
I1
F0.02
tp2527
a(g41
I0
F0.0
tp2528
asS'L55'
p2529
(lp2530
(g3
I2240
F37.07
tp2531
a(g5
I2
F0.03
tp2532
a(g7
I384
F6.36
tp2533
a(g9
I1004
F16.62
tp2534
a(g11
I787
F13.03
tp2535
a(g13
I125
F2.07
tp2536
a(g15
I406
F6.72
tp2537
a(g17
I193
F3.19
tp2538
a(g19
I27
F0.45
tp2539
a(g21
I31
F0.51
tp2540
a(g23
I11
F0.18
tp2541
a(g25
I18
F0.3
tp2542
a(g27
I43
F0.71
tp2543
a(g29
I141
F2.33
tp2544
a(g31
I62
F1.03
tp2545
a(g33
I18
F0.3
tp2546
a(g35
I33
F0.55
tp2547
a(g37
I157
F2.6
tp2548
a(g39
I0
F0.0
tp2549
a(g41
I348
F5.76
tp2550
asS'L56'
p2551
(lp2552
(g3
I19
F0.31
tp2553
a(g5
I4
F0.07
tp2554
a(g7
I344
F5.69
tp2555
a(g9
I104
F1.72
tp2556
a(g11
I19
F0.31
tp2557
a(g13
I4
F0.07
tp2558
a(g15
I6
F0.1
tp2559
a(g17
I40
F0.66
tp2560
a(g19
I1
F0.02
tp2561
a(g21
I12
F0.2
tp2562
a(g23
I0
F0.0
tp2563
a(g25
I5
F0.08
tp2564
a(g27
I659
F10.91
tp2565
a(g29
I1
F0.02
tp2566
a(g31
I2
F0.03
tp2567
a(g33
I4391
F72.67
tp2568
a(g35
I397
F6.57
tp2569
a(g37
I0
F0.0
tp2570
a(g39
I1
F0.02
tp2571
a(g41
I15
F0.25
tp2572
asS'L57'
p2573
(lp2574
(g3
I7
F0.12
tp2575
a(g5
I0
F0.0
tp2576
a(g7
I7
F0.12
tp2577
a(g9
I16
F0.26
tp2578
a(g11
I1
F0.02
tp2579
a(g13
I5988
F99.11
tp2580
a(g15
I0
F0.0
tp2581
a(g17
I0
F0.0
tp2582
a(g19
I0
F0.0
tp2583
a(g21
I0
F0.0
tp2584
a(g23
I0
F0.0
tp2585
a(g25
I0
F0.0
tp2586
a(g27
I1
F0.02
tp2587
a(g29
I0
F0.0
tp2588
a(g31
I5
F0.08
tp2589
a(g33
I6
F0.1
tp2590
a(g35
I0
F0.0
tp2591
a(g37
I1
F0.02
tp2592
a(g39
I4
F0.07
tp2593
a(g41
I0
F0.0
tp2594
asS'L58'
p2595
(lp2596
(g3
I8
F0.13
tp2597
a(g5
I1
F0.02
tp2598
a(g7
I5
F0.08
tp2599
a(g9
I1
F0.02
tp2600
a(g11
I17
F0.28
tp2601
a(g13
I6
F0.1
tp2602
a(g15
I0
F0.0
tp2603
a(g17
I576
F9.53
tp2604
a(g19
I0
F0.0
tp2605
a(g21
I4
F0.07
tp2606
a(g23
I9
F0.15
tp2607
a(g25
I2
F0.03
tp2608
a(g27
I0
F0.0
tp2609
a(g29
I0
F0.0
tp2610
a(g31
I0
F0.0
tp2611
a(g33
I2
F0.03
tp2612
a(g35
I5
F0.08
tp2613
a(g37
I5399
F89.36
tp2614
a(g39
I0
F0.0
tp2615
a(g41
I0
F0.0
tp2616
asS'L59'
p2617
(lp2618
(g3
I6
F0.1
tp2619
a(g5
I0
F0.0
tp2620
a(g7
I0
F0.0
tp2621
a(g9
I0
F0.0
tp2622
a(g11
I0
F0.0
tp2623
a(g13
I3
F0.05
tp2624
a(g15
I2
F0.03
tp2625
a(g17
I0
F0.0
tp2626
a(g19
I0
F0.0
tp2627
a(g21
I31
F0.51
tp2628
a(g23
I0
F0.0
tp2629
a(g25
I0
F0.0
tp2630
a(g27
I5922
F98.01
tp2631
a(g29
I1
F0.02
tp2632
a(g31
I2
F0.03
tp2633
a(g33
I63
F1.04
tp2634
a(g35
I5
F0.08
tp2635
a(g37
I0
F0.0
tp2636
a(g39
I0
F0.0
tp2637
a(g41
I0
F0.0
tp2638
asS'L65'
p2639
(lp2640
(g3
I1
F0.02
tp2641
a(g5
I2
F0.03
tp2642
a(g7
I0
F0.0
tp2643
a(g9
I2
F0.03
tp2644
a(g11
I1
F0.02
tp2645
a(g13
I35
F0.58
tp2646
a(g15
I0
F0.0
tp2647
a(g17
I3
F0.05
tp2648
a(g19
I0
F0.0
tp2649
a(g21
I1
F0.02
tp2650
a(g23
I0
F0.0
tp2651
a(g25
I13
F0.22
tp2652
a(g27
I0
F0.0
tp2653
a(g29
I1
F0.02
tp2654
a(g31
I34
F0.56
tp2655
a(g33
I5900
F97.65
tp2656
a(g35
I24
F0.4
tp2657
a(g37
I2
F0.03
tp2658
a(g39
I2
F0.03
tp2659
a(g41
I0
F0.0
tp2660
asS'L64'
p2661
(lp2662
(g3
I22
F0.36
tp2663
a(g5
I2
F0.03
tp2664
a(g7
I16
F0.26
tp2665
a(g9
I0
F0.0
tp2666
a(g11
I0
F0.0
tp2667
a(g13
I5881
F97.34
tp2668
a(g15
I0
F0.0
tp2669
a(g17
I0
F0.0
tp2670
a(g19
I0
F0.0
tp2671
a(g21
I0
F0.0
tp2672
a(g23
I0
F0.0
tp2673
a(g25
I1
F0.02
tp2674
a(g27
I1
F0.02
tp2675
a(g29
I0
F0.0
tp2676
a(g31
I1
F0.02
tp2677
a(g33
I100
F1.66
tp2678
a(g35
I0
F0.0
tp2679
a(g37
I3
F0.05
tp2680
a(g39
I1
F0.02
tp2681
a(g41
I0
F0.0
tp2682
asS'L67'
p2683
(lp2684
(g3
I10
F0.17
tp2685
a(g5
I1
F0.02
tp2686
a(g7
I0
F0.0
tp2687
a(g9
I1
F0.02
tp2688
a(g11
I9
F0.15
tp2689
a(g13
I72
F1.19
tp2690
a(g15
I1
F0.02
tp2691
a(g17
I459
F7.6
tp2692
a(g19
I0
F0.0
tp2693
a(g21
I6
F0.1
tp2694
a(g23
I0
F0.0
tp2695
a(g25
I3
F0.05
tp2696
a(g27
I7
F0.12
tp2697
a(g29
I0
F0.0
tp2698
a(g31
I0
F0.0
tp2699
a(g33
I5344
F88.45
tp2700
a(g35
I6
F0.1
tp2701
a(g37
I1
F0.02
tp2702
a(g39
I3
F0.05
tp2703
a(g41
I97
F1.61
tp2704
asS'L66'
p2705
(lp2706
(g3
I1
F0.02
tp2707
a(g5
I0
F0.0
tp2708
a(g7
I1
F0.02
tp2709
a(g9
I8
F0.13
tp2710
a(g11
I0
F0.0
tp2711
a(g13
I5206
F87.38
tp2712
a(g15
I0
F0.0
tp2713
a(g17
I5
F0.08
tp2714
a(g19
I3
F0.05
tp2715
a(g21
I459
F7.7
tp2716
a(g23
I0
F0.0
tp2717
a(g25
I0
F0.0
tp2718
a(g27
I1
F0.02
tp2719
a(g29
I1
F0.02
tp2720
a(g31
I231
F3.88
tp2721
a(g33
I28
F0.47
tp2722
a(g35
I1
F0.02
tp2723
a(g37
I2
F0.03
tp2724
a(g39
I3
F0.05
tp2725
a(g41
I0
F0.0
tp2726
asS'L61'
p2727
(lp2728
(g3
I3
F0.05
tp2729
a(g5
I5
F0.08
tp2730
a(g7
I0
F0.0
tp2731
a(g9
I0
F0.0
tp2732
a(g11
I7
F0.12
tp2733
a(g13
I3
F0.05
tp2734
a(g15
I7
F0.12
tp2735
a(g17
I0
F0.0
tp2736
a(g19
I4
F0.07
tp2737
a(g21
I0
F0.0
tp2738
a(g23
I0
F0.0
tp2739
a(g25
I1
F0.02
tp2740
a(g27
I3
F0.05
tp2741
a(g29
I0
F0.0
tp2742
a(g31
I5975
F98.89
tp2743
a(g33
I10
F0.17
tp2744
a(g35
I7
F0.12
tp2745
a(g37
I0
F0.0
tp2746
a(g39
I0
F0.0
tp2747
a(g41
I0
F0.0
tp2748
asS'L60'
p2749
(lp2750
(g3
I2062
F34.13
tp2751
a(g5
I0
F0.0
tp2752
a(g7
I2057
F34.05
tp2753
a(g9
I10
F0.17
tp2754
a(g11
I3
F0.05
tp2755
a(g13
I76
F1.26
tp2756
a(g15
I4
F0.07
tp2757
a(g17
I7
F0.12
tp2758
a(g19
I190
F3.14
tp2759
a(g21
I4
F0.07
tp2760
a(g23
I0
F0.0
tp2761
a(g25
I10
F0.17
tp2762
a(g27
I42
F0.7
tp2763
a(g29
I0
F0.0
tp2764
a(g31
I5
F0.08
tp2765
a(g33
I1277
F21.14
tp2766
a(g35
I45
F0.74
tp2767
a(g37
I232
F3.84
tp2768
a(g39
I0
F0.0
tp2769
a(g41
I4
F0.07
tp2770
asS'L63'
p2771
(lp2772
(g3
I8
F0.13
tp2773
a(g5
I1
F0.02
tp2774
a(g7
I0
F0.0
tp2775
a(g9
I0
F0.0
tp2776
a(g11
I0
F0.0
tp2777
a(g13
I23
F0.38
tp2778
a(g15
I0
F0.0
tp2779
a(g17
I89
F1.47
tp2780
a(g19
I0
F0.0
tp2781
a(g21
I1
F0.02
tp2782
a(g23
I2
F0.03
tp2783
a(g25
I9
F0.15
tp2784
a(g27
I1
F0.02
tp2785
a(g29
I1
F0.02
tp2786
a(g31
I18
F0.3
tp2787
a(g33
I4882
F80.8
tp2788
a(g35
I993
F16.43
tp2789
a(g37
I0
F0.0
tp2790
a(g39
I0
F0.0
tp2791
a(g41
I1
F0.02
tp2792
asS'L62'
p2793
(lp2794
(g3
I0
F0.0
tp2795
a(g5
I1
F0.02
tp2796
a(g7
I0
F0.0
tp2797
a(g9
I0
F0.0
tp2798
a(g11
I5965
F98.73
tp2799
a(g13
I1
F0.02
tp2800
a(g15
I0
F0.0
tp2801
a(g17
I8
F0.13
tp2802
a(g19
I0
F0.0
tp2803
a(g21
I25
F0.41
tp2804
a(g23
I0
F0.0
tp2805
a(g25
I0
F0.0
tp2806
a(g27
I0
F0.0
tp2807
a(g29
I0
F0.0
tp2808
a(g31
I0
F0.0
tp2809
a(g33
I12
F0.2
tp2810
a(g35
I2
F0.03
tp2811
a(g37
I3
F0.05
tp2812
a(g39
I0
F0.0
tp2813
a(g41
I1
F0.02
tp2814
asS'L69'
p2815
(lp2816
(g3
I68
F1.13
tp2817
a(g5
I0
F0.0
tp2818
a(g7
I437
F7.23
tp2819
a(g9
I3
F0.05
tp2820
a(g11
I0
F0.0
tp2821
a(g13
I68
F1.13
tp2822
a(g15
I3
F0.05
tp2823
a(g17
I4
F0.07
tp2824
a(g19
I51
F0.84
tp2825
a(g21
I5
F0.08
tp2826
a(g23
I0
F0.0
tp2827
a(g25
I87
F1.44
tp2828
a(g27
I3
F0.05
tp2829
a(g29
I150
F2.48
tp2830
a(g31
I93
F1.54
tp2831
a(g33
I263
F4.35
tp2832
a(g35
I4776
F79.05
tp2833
a(g37
I2
F0.03
tp2834
a(g39
I0
F0.0
tp2835
a(g41
I0
F0.0
tp2836
asS'L68'
p2837
(lp2838
(g3
I69
F1.14
tp2839
a(g5
I0
F0.0
tp2840
a(g7
I6
F0.1
tp2841
a(g9
I33
F0.55
tp2842
a(g11
I0
F0.0
tp2843
a(g13
I5643
F93.4
tp2844
a(g15
I1
F0.02
tp2845
a(g17
I2
F0.03
tp2846
a(g19
I1
F0.02
tp2847
a(g21
I0
F0.0
tp2848
a(g23
I2
F0.03
tp2849
a(g25
I0
F0.0
tp2850
a(g27
I1
F0.02
tp2851
a(g29
I1
F0.02
tp2852
a(g31
I193
F3.19
tp2853
a(g33
I69
F1.14
tp2854
a(g35
I4
F0.07
tp2855
a(g37
I8
F0.13
tp2856
a(g39
I1
F0.02
tp2857
a(g41
I2
F0.03
tp2858
asS'L6'
p2859
(lp2860
(g3
I41
F0.71
tp2861
a(g5
I0
F0.0
tp2862
a(g7
I2
F0.03
tp2863
a(g9
I6
F0.1
tp2864
a(g11
I18
F0.31
tp2865
a(g13
I1
F0.02
tp2866
a(g15
I12
F0.21
tp2867
a(g17
I150
F2.6
tp2868
a(g19
I7
F0.12
tp2869
a(g21
I30
F0.52
tp2870
a(g23
I0
F0.0
tp2871
a(g25
I4
F0.07
tp2872
a(g27
I88
F1.52
tp2873
a(g29
I5171
F89.49
tp2874
a(g31
I4
F0.07
tp2875
a(g33
I170
F2.94
tp2876
a(g35
I33
F0.57
tp2877
a(g37
I0
F0.0
tp2878
a(g39
I1
F0.02
tp2879
a(g41
I13
F0.22
tp2880
asS'L7'
p2881
(lp2882
(g3
I151
F2.74
tp2883
a(g5
I4
F0.07
tp2884
a(g7
I31
F0.56
tp2885
a(g9
I417
F7.58
tp2886
a(g11
I14
F0.25
tp2887
a(g13
I1
F0.02
tp2888
a(g15
I3
F0.05
tp2889
a(g17
I61
F1.11
tp2890
a(g19
I11
F0.2
tp2891
a(g21
I29
F0.53
tp2892
a(g23
I1
F0.02
tp2893
a(g25
I1
F0.02
tp2894
a(g27
I78
F1.42
tp2895
a(g29
I10
F0.18
tp2896
a(g31
I1
F0.02
tp2897
a(g33
I3402
F61.81
tp2898
a(g35
I1265
F22.98
tp2899
a(g37
I6
F0.11
tp2900
a(g39
I0
F0.0
tp2901
a(g41
I7
F0.13
tp2902
asS'L4'
p2903
(lp2904
(g3
I2
F0.04
tp2905
a(g5
I0
F0.0
tp2906
a(g7
I1
F0.02
tp2907
a(g9
I0
F0.0
tp2908
a(g11
I0
F0.0
tp2909
a(g13
I2
F0.04
tp2910
a(g15
I0
F0.0
tp2911
a(g17
I85
F1.66
tp2912
a(g19
I0
F0.0
tp2913
a(g21
I1905
F37.12
tp2914
a(g23
I2627
F51.19
tp2915
a(g25
I0
F0.0
tp2916
a(g27
I3
F0.06
tp2917
a(g29
I4
F0.08
tp2918
a(g31
I0
F0.0
tp2919
a(g33
I3
F0.06
tp2920
a(g35
I6
F0.12
tp2921
a(g37
I490
F9.55
tp2922
a(g39
I0
F0.0
tp2923
a(g41
I0
F0.0
tp2924
asS'L5'
p2925
(lp2926
(g3
I208
F3.58
tp2927
a(g5
I1
F0.02
tp2928
a(g7
I3
F0.05
tp2929
a(g9
I9
F0.15
tp2930
a(g11
I12
F0.21
tp2931
a(g13
I1
F0.02
tp2932
a(g15
I4
F0.07
tp2933
a(g17
I63
F1.08
tp2934
a(g19
I19
F0.33
tp2935
a(g21
I2
F0.03
tp2936
a(g23
I2
F0.03
tp2937
a(g25
I32
F0.55
tp2938
a(g27
I76
F1.31
tp2939
a(g29
I71
F1.22
tp2940
a(g31
I5
F0.09
tp2941
a(g33
I313
F5.38
tp2942
a(g35
I4961
F85.33
tp2943
a(g37
I7
F0.12
tp2944
a(g39
I0
F0.0
tp2945
a(g41
I3
F0.05
tp2946
asS'L2'
p2947
(lp2948
(g3
I329
F6.97
tp2949
a(g5
I3
F0.06
tp2950
a(g7
I6
F0.13
tp2951
a(g9
I3
F0.06
tp2952
a(g11
I9
F0.19
tp2953
a(g13
I6
F0.13
tp2954
a(g15
I3
F0.06
tp2955
a(g17
I3254
F68.97
tp2956
a(g19
I2
F0.04
tp2957
a(g21
I191
F4.05
tp2958
a(g23
I7
F0.15
tp2959
a(g25
I95
F2.01
tp2960
a(g27
I9
F0.19
tp2961
a(g29
I6
F0.13
tp2962
a(g31
I0
F0.0
tp2963
a(g33
I5
F0.11
tp2964
a(g35
I43
F0.91
tp2965
a(g37
I728
F15.43
tp2966
a(g39
I0
F0.0
tp2967
a(g41
I5
F0.11
tp2968
asS'L3'
p2969
(lp2970
(g3
I9
F0.18
tp2971
a(g5
I9
F0.18
tp2972
a(g7
I4
F0.08
tp2973
a(g9
I208
F4.21
tp2974
a(g11
I5
F0.1
tp2975
a(g13
I2
F0.04
tp2976
a(g15
I1
F0.02
tp2977
a(g17
I16
F0.32
tp2978
a(g19
I99
F2.01
tp2979
a(g21
I376
F7.62
tp2980
a(g23
I24
F0.49
tp2981
a(g25
I0
F0.0
tp2982
a(g27
I2
F0.04
tp2983
a(g29
I867
F17.56
tp2984
a(g31
I1
F0.02
tp2985
a(g33
I2
F0.04
tp2986
a(g35
I25
F0.51
tp2987
a(g37
I3277
F66.38
tp2988
a(g39
I0
F0.0
tp2989
a(g41
I1
F0.02
tp2990
asS'L1'
p2991
(lp2992
(g3
I2
F0.04
tp2993
a(g5
I1
F0.02
tp2994
a(g7
I3057
F67.33
tp2995
a(g9
I394
F8.68
tp2996
a(g11
I7
F0.15
tp2997
a(g13
I24
F0.53
tp2998
a(g15
I1
F0.02
tp2999
a(g17
I1
F0.02
tp3000
a(g19
I11
F0.24
tp3001
a(g21
I0
F0.0
tp3002
a(g23
I0
F0.0
tp3003
a(g25
I75
F1.65
tp3004
a(g27
I1
F0.02
tp3005
a(g29
I912
F20.09
tp3006
a(g31
I5
F0.11
tp3007
a(g33
I34
F0.75
tp3008
a(g35
I1
F0.02
tp3009
a(g37
I1
F0.02
tp3010
a(g39
I0
F0.0
tp3011
a(g41
I8
F0.18
tp3012
asS'L8'
p3013
(lp3014
(g3
I150
F2.78
tp3015
a(g5
I0
F0.0
tp3016
a(g7
I0
F0.0
tp3017
a(g9
I28
F0.52
tp3018
a(g11
I6
F0.11
tp3019
a(g13
I3
F0.06
tp3020
a(g15
I110
F2.04
tp3021
a(g17
I23
F0.43
tp3022
a(g19
I14
F0.26
tp3023
a(g21
I19
F0.35
tp3024
a(g23
I0
F0.0
tp3025
a(g25
I0
F0.0
tp3026
a(g27
I4132
F76.52
tp3027
a(g29
I101
F1.87
tp3028
a(g31
I1
F0.02
tp3029
a(g33
I540
F10.0
tp3030
a(g35
I262
F4.85
tp3031
a(g37
I2
F0.04
tp3032
a(g39
I0
F0.0
tp3033
a(g41
I1
F0.02
tp3034
asS'L9'
p3035
(lp3036
(g3
I2384
F44.99
tp3037
a(g5
I3
F0.06
tp3038
a(g7
I13
F0.25
tp3039
a(g9
I4
F0.08
tp3040
a(g11
I64
F1.21
tp3041
a(g13
I18
F0.34
tp3042
a(g15
I1
F0.02
tp3043
a(g17
I24
F0.45
tp3044
a(g19
I312
F5.89
tp3045
a(g21
I904
F17.06
tp3046
a(g23
I0
F0.0
tp3047
a(g25
I1
F0.02
tp3048
a(g27
I88
F1.66
tp3049
a(g29
I1
F0.02
tp3050
a(g31
I7
F0.13
tp3051
a(g33
I1272
F24.0
tp3052
a(g35
I138
F2.6
tp3053
a(g37
I40
F0.75
tp3054
a(g39
I0
F0.0
tp3055
a(g41
I1
F0.02
tp3056
as.