(dp0
S'H6A'
p1
(lp2
(S'A'
p3
I7
F4.64
tp4
a(S'C'
p5
I0
F0.0
tp6
a(S'D'
p7
I0
F0.0
tp8
a(S'E'
p9
I21
F13.91
tp10
a(S'F'
p11
I1
F0.66
tp12
a(S'G'
p13
I1
F0.66
tp14
a(S'H'
p15
I0
F0.0
tp16
a(S'I'
p17
I1
F0.66
tp18
a(S'K'
p19
I2
F1.32
tp20
a(S'L'
p21
I5
F3.31
tp22
a(S'M'
p23
I0
F0.0
tp24
a(S'N'
p25
I1
F0.66
tp26
a(S'P'
p27
I0
F0.0
tp28
a(S'Q'
p29
I95
F62.91
tp30
a(S'R'
p31
I3
F1.99
tp32
a(S'S'
p33
I8
F5.3
tp34
a(S'T'
p35
I3
F1.99
tp36
a(S'V'
p37
I3
F1.99
tp38
a(S'W'
p39
I0
F0.0
tp40
a(S'Y'
p41
I0
F0.0
tp42
asS'H6C'
p43
(lp44
(g3
I5
F31.25
tp45
a(g5
I0
F0.0
tp46
a(g7
I0
F0.0
tp47
a(g9
I3
F18.75
tp48
a(g11
I0
F0.0
tp49
a(g13
I3
F18.75
tp50
a(g15
I1
F6.25
tp51
a(g17
I0
F0.0
tp52
a(g19
I0
F0.0
tp53
a(g21
I0
F0.0
tp54
a(g23
I0
F0.0
tp55
a(g25
I0
F0.0
tp56
a(g27
I0
F0.0
tp57
a(g29
I1
F6.25
tp58
a(g31
I0
F0.0
tp59
a(g33
I0
F0.0
tp60
a(g35
I1
F6.25
tp61
a(g37
I1
F6.25
tp62
a(g39
I1
F6.25
tp63
a(g41
I0
F0.0
tp64
asS'H6B'
p65
(lp66
(g3
I0
F0.0
tp67
a(g5
I0
F0.0
tp68
a(g7
I0
F0.0
tp69
a(g9
I0
F0.0
tp70
a(g11
I0
F0.0
tp71
a(g13
I13
F65.0
tp72
a(g15
I0
F0.0
tp73
a(g17
I0
F0.0
tp74
a(g19
I0
F0.0
tp75
a(g21
I3
F15.0
tp76
a(g23
I0
F0.0
tp77
a(g25
I0
F0.0
tp78
a(g27
I0
F0.0
tp79
a(g29
I0
F0.0
tp80
a(g31
I1
F5.0
tp81
a(g33
I1
F5.0
tp82
a(g35
I0
F0.0
tp83
a(g37
I2
F10.0
tp84
a(g39
I0
F0.0
tp85
a(g41
I0
F0.0
tp86
asS'H6D'
p87
(lp88
(g3
I0
F0.0
tp89
a(g5
I0
F0.0
tp90
a(g7
I0
F0.0
tp91
a(g9
I1
F33.33
tp92
a(g11
I0
F0.0
tp93
a(g13
I0
F0.0
tp94
a(g15
I0
F0.0
tp95
a(g17
I0
F0.0
tp96
a(g19
I1
F33.33
tp97
a(g21
I0
F0.0
tp98
a(g23
I0
F0.0
tp99
a(g25
I0
F0.0
tp100
a(g27
I0
F0.0
tp101
a(g29
I0
F0.0
tp102
a(g31
I0
F0.0
tp103
a(g33
I0
F0.0
tp104
a(g35
I0
F0.0
tp105
a(g37
I1
F33.33
tp106
a(g39
I0
F0.0
tp107
a(g41
I0
F0.0
tp108
asS'H54'
p109
(lp110
(g3
I955
F2.14
tp111
a(g5
I11
F0.02
tp112
a(g7
I4193
F9.39
tp113
a(g9
I287
F0.64
tp114
a(g11
I1886
F4.22
tp115
a(g13
I19184
F42.95
tp116
a(g15
I51
F0.11
tp117
a(g17
I120
F0.27
tp118
a(g19
I1584
F3.55
tp119
a(g21
I430
F0.96
tp120
a(g23
I8
F0.02
tp121
a(g25
I2626
F5.88
tp122
a(g27
I45
F0.1
tp123
a(g29
I82
F0.18
tp124
a(g31
I515
F1.15
tp125
a(g33
I10875
F24.34
tp126
a(g35
I1485
F3.32
tp127
a(g37
I166
F0.37
tp128
a(g39
I18
F0.04
tp129
a(g41
I136
F0.3
tp130
asS'H55'
p131
(lp132
(g3
I1547
F3.46
tp133
a(g5
I13
F0.03
tp134
a(g7
I3152
F7.05
tp135
a(g9
I497
F1.11
tp136
a(g11
I157
F0.35
tp137
a(g13
I23269
F52.06
tp138
a(g15
I186
F0.42
tp139
a(g17
I249
F0.56
tp140
a(g19
I139
F0.31
tp141
a(g21
I112
F0.25
tp142
a(g23
I33
F0.07
tp143
a(g25
I855
F1.91
tp144
a(g27
I50
F0.11
tp145
a(g29
I39
F0.09
tp146
a(g31
I806
F1.8
tp147
a(g33
I9360
F20.94
tp148
a(g35
I1454
F3.25
tp149
a(g37
I402
F0.9
tp150
a(g39
I1838
F4.11
tp151
a(g41
I528
F1.18
tp152
asS'H56'
p153
(lp154
(g3
I1254
F2.81
tp155
a(g5
I14
F0.03
tp156
a(g7
I4659
F10.42
tp157
a(g9
I1976
F4.42
tp158
a(g11
I320
F0.72
tp159
a(g13
I2461
F5.51
tp160
a(g15
I425
F0.95
tp161
a(g17
I978
F2.19
tp162
a(g19
I909
F2.03
tp163
a(g21
I145
F0.32
tp164
a(g23
I114
F0.26
tp165
a(g25
I6758
F15.12
tp166
a(g27
I129
F0.29
tp167
a(g29
I244
F0.55
tp168
a(g31
I1146
F2.56
tp169
a(g33
I11890
F26.6
tp170
a(g35
I6385
F14.28
tp171
a(g37
I1444
F3.23
tp172
a(g39
I23
F0.05
tp173
a(g41
I3412
F7.63
tp174
asS'H57'
p175
(lp176
(g3
I2494
F5.58
tp177
a(g5
I0
F0.0
tp178
a(g7
I151
F0.34
tp179
a(g9
I493
F1.1
tp180
a(g11
I70
F0.16
tp181
a(g13
I104
F0.23
tp182
a(g15
I70
F0.16
tp183
a(g17
I3617
F8.09
tp184
a(g19
I6348
F14.2
tp185
a(g21
I124
F0.28
tp186
a(g23
I148
F0.33
tp187
a(g25
I2508
F5.61
tp188
a(g27
I852
F1.91
tp189
a(g29
I280
F0.63
tp190
a(g31
I674
F1.51
tp191
a(g33
I795
F1.78
tp192
a(g35
I24671
F55.19
tp193
a(g37
I1069
F2.39
tp194
a(g39
I7
F0.02
tp195
a(g41
I218
F0.49
tp196
asS'H50'
p197
(lp198
(g3
I3191
F7.14
tp199
a(g5
I111
F0.25
tp200
a(g7
I250
F0.56
tp201
a(g9
I2313
F5.17
tp202
a(g11
I1137
F2.54
tp203
a(g13
I4507
F10.08
tp204
a(g15
I676
F1.51
tp205
a(g17
I2807
F6.28
tp206
a(g19
I163
F0.36
tp207
a(g21
I2100
F4.7
tp208
a(g23
I181
F0.4
tp209
a(g25
I1583
F3.54
tp210
a(g27
I22
F0.05
tp211
a(g29
I116
F0.26
tp212
a(g31
I5727
F12.81
tp213
a(g33
I3460
F7.74
tp214
a(g35
I1398
F3.13
tp215
a(g37
I4524
F10.12
tp216
a(g39
I5854
F13.1
tp217
a(g41
I4574
F10.23
tp218
asS'H51'
p219
(lp220
(g3
I59
F0.13
tp221
a(g5
I2
F0.0
tp222
a(g7
I5
F0.01
tp223
a(g9
I3
F0.01
tp224
a(g11
I507
F1.13
tp225
a(g13
I18
F0.04
tp226
a(g15
I4
F0.01
tp227
a(g17
I36389
F81.4
tp228
a(g19
I16
F0.04
tp229
a(g21
I728
F1.63
tp230
a(g23
I1760
F3.94
tp231
a(g25
I38
F0.09
tp232
a(g27
I5
F0.01
tp233
a(g29
I0
F0.0
tp234
a(g31
I14
F0.03
tp235
a(g33
I222
F0.5
tp236
a(g35
I2282
F5.1
tp237
a(g37
I2629
F5.88
tp238
a(g39
I1
F0.0
tp239
a(g41
I16
F0.04
tp240
asS'H52'
p241
(lp242
(g3
I141
F0.32
tp243
a(g5
I45
F0.1
tp244
a(g7
I1549
F3.47
tp245
a(g9
I95
F0.21
tp246
a(g11
I761
F1.7
tp247
a(g13
I705
F1.58
tp248
a(g15
I586
F1.31
tp249
a(g17
I2223
F4.97
tp250
a(g19
I3361
F7.52
tp251
a(g21
I165
F0.37
tp252
a(g23
I40
F0.09
tp253
a(g25
I7206
F16.12
tp254
a(g27
I48
F0.11
tp255
a(g29
I114
F0.26
tp256
a(g31
I1406
F3.15
tp257
a(g33
I13889
F31.07
tp258
a(g35
I1143
F2.56
tp259
a(g37
I254
F0.57
tp260
a(g39
I1286
F2.88
tp261
a(g41
I9675
F21.64
tp262
asS'H53'
p263
(lp264
(g3
I406
F0.91
tp265
a(g5
I19
F0.04
tp266
a(g7
I8305
F18.62
tp267
a(g9
I489
F1.1
tp268
a(g11
I275
F0.62
tp269
a(g13
I3455
F7.75
tp270
a(g15
I2651
F5.94
tp271
a(g17
I1874
F4.2
tp272
a(g19
I354
F0.79
tp273
a(g21
I221
F0.5
tp274
a(g23
I180
F0.4
tp275
a(g25
I4270
F9.58
tp276
a(g27
I151
F0.34
tp277
a(g29
I333
F0.75
tp278
a(g31
I990
F2.22
tp279
a(g33
I11718
F26.28
tp280
a(g35
I1834
F4.11
tp281
a(g37
I405
F0.91
tp282
a(g39
I1379
F3.09
tp283
a(g41
I5272
F11.82
tp284
asS'H58'
p285
(lp286
(g3
I465
F1.04
tp287
a(g5
I29
F0.06
tp288
a(g7
I3690
F8.25
tp289
a(g9
I869
F1.94
tp290
a(g11
I2188
F4.89
tp291
a(g13
I1397
F3.13
tp292
a(g15
I1172
F2.62
tp293
a(g17
I463
F1.04
tp294
a(g19
I1697
F3.8
tp295
a(g21
I200
F0.45
tp296
a(g23
I60
F0.13
tp297
a(g25
I10092
F22.58
tp298
a(g27
I13
F0.03
tp299
a(g29
I250
F0.56
tp300
a(g31
I2798
F6.26
tp301
a(g33
I1841
F4.12
tp302
a(g35
I1123
F2.51
tp303
a(g37
I213
F0.48
tp304
a(g39
I87
F0.19
tp305
a(g41
I16041
F35.89
tp306
asS'H59'
p307
(lp308
(g3
I166
F0.37
tp309
a(g5
I108
F0.24
tp310
a(g7
I127
F0.28
tp311
a(g9
I10
F0.02
tp312
a(g11
I563
F1.26
tp313
a(g13
I930
F2.08
tp314
a(g15
I533
F1.19
tp315
a(g17
I48
F0.11
tp316
a(g19
I22
F0.05
tp317
a(g21
I125
F0.28
tp318
a(g23
I4
F0.01
tp319
a(g25
I252
F0.56
tp320
a(g27
I17
F0.04
tp321
a(g29
I48
F0.11
tp322
a(g31
I59
F0.13
tp323
a(g33
I493
F1.1
tp324
a(g35
I52
F0.12
tp325
a(g37
I45
F0.1
tp326
a(g39
I5
F0.01
tp327
a(g41
I41090
F91.92
tp328
asS'H69'
p329
(lp330
(g3
I23
F0.05
tp331
a(g5
I1
F0.0
tp332
a(g7
I15
F0.03
tp333
a(g9
I0
F0.0
tp334
a(g11
I657
F1.47
tp335
a(g13
I3
F0.01
tp336
a(g15
I1
F0.0
tp337
a(g17
I34250
F76.62
tp338
a(g19
I3
F0.01
tp339
a(g21
I2077
F4.65
tp340
a(g23
I5730
F12.82
tp341
a(g25
I9
F0.02
tp342
a(g27
I2
F0.0
tp343
a(g29
I5
F0.01
tp344
a(g31
I0
F0.0
tp345
a(g33
I42
F0.09
tp346
a(g35
I225
F0.5
tp347
a(g37
I1652
F3.7
tp348
a(g39
I0
F0.0
tp349
a(g41
I1
F0.0
tp350
asS'H82C'
p351
(lp352
(g3
I69
F0.15
tp353
a(g5
I1
F0.0
tp354
a(g7
I2
F0.0
tp355
a(g9
I3
F0.01
tp356
a(g11
I3
F0.01
tp357
a(g13
I7
F0.02
tp358
a(g15
I3
F0.01
tp359
a(g17
I14
F0.03
tp360
a(g19
I1
F0.0
tp361
a(g21
I33552
F75.3
tp362
a(g23
I1706
F3.83
tp363
a(g25
I18
F0.04
tp364
a(g27
I53
F0.12
tp365
a(g29
I13
F0.03
tp366
a(g31
I11
F0.02
tp367
a(g33
I15
F0.03
tp368
a(g35
I12
F0.03
tp369
a(g37
I9065
F20.34
tp370
a(g39
I1
F0.0
tp371
a(g41
I0
F0.0
tp372
asS'H82A'
p373
(lp374
(g3
I80
F0.18
tp375
a(g5
I17
F0.04
tp376
a(g7
I1213
F2.71
tp377
a(g9
I49
F0.11
tp378
a(g11
I21
F0.05
tp379
a(g13
I238
F0.53
tp380
a(g15
I333
F0.75
tp381
a(g17
I176
F0.39
tp382
a(g19
I502
F1.12
tp383
a(g21
I75
F0.17
tp384
a(g23
I21
F0.05
tp385
a(g25
I20460
F45.79
tp386
a(g27
I17
F0.04
tp387
a(g29
I25
F0.06
tp388
a(g31
I3859
F8.64
tp389
a(g33
I13899
F31.11
tp390
a(g35
I3550
F7.95
tp391
a(g37
I24
F0.05
tp392
a(g39
I7
F0.02
tp393
a(g41
I105
F0.23
tp394
asS'H82D'
p395
(lp396
(g3
I2
F3.51
tp397
a(g5
I0
F0.0
tp398
a(g7
I0
F0.0
tp399
a(g9
I0
F0.0
tp400
a(g11
I0
F0.0
tp401
a(g13
I6
F10.53
tp402
a(g15
I0
F0.0
tp403
a(g17
I1
F1.75
tp404
a(g19
I3
F5.26
tp405
a(g21
I7
F12.28
tp406
a(g23
I9
F15.79
tp407
a(g25
I2
F3.51
tp408
a(g27
I0
F0.0
tp409
a(g29
I0
F0.0
tp410
a(g31
I9
F15.79
tp411
a(g33
I10
F17.54
tp412
a(g35
I4
F7.02
tp413
a(g37
I4
F7.02
tp414
a(g39
I0
F0.0
tp415
a(g41
I0
F0.0
tp416
asS'H82E'
p417
(lp418
(g3
I0
F0.0
tp419
a(g5
I0
F0.0
tp420
a(g7
I0
F0.0
tp421
a(g9
I0
F0.0
tp422
a(g11
I0
F0.0
tp423
a(g13
I0
F0.0
tp424
a(g15
I0
F0.0
tp425
a(g17
I0
F0.0
tp426
a(g19
I0
F0.0
tp427
a(g21
I19
F70.37
tp428
a(g23
I1
F3.7
tp429
a(g25
I0
F0.0
tp430
a(g27
I0
F0.0
tp431
a(g29
I0
F0.0
tp432
a(g31
I0
F0.0
tp433
a(g33
I0
F0.0
tp434
a(g35
I2
F7.41
tp435
a(g37
I5
F18.52
tp436
a(g39
I0
F0.0
tp437
a(g41
I0
F0.0
tp438
asS'H61'
p439
(lp440
(g3
I2055
F4.6
tp441
a(g5
I3
F0.01
tp442
a(g7
I18004
F40.27
tp443
a(g9
I958
F2.14
tp444
a(g11
I54
F0.12
tp445
a(g13
I536
F1.2
tp446
a(g15
I128
F0.29
tp447
a(g17
I47
F0.11
tp448
a(g19
I83
F0.19
tp449
a(g21
I676
F1.51
tp450
a(g23
I12
F0.03
tp451
a(g25
I200
F0.45
tp452
a(g27
I11183
F25.02
tp453
a(g29
I7458
F16.68
tp454
a(g31
I513
F1.15
tp455
a(g33
I455
F1.02
tp456
a(g35
I693
F1.55
tp457
a(g37
I1415
F3.17
tp458
a(g39
I181
F0.4
tp459
a(g41
I41
F0.09
tp460
asS'H60'
p461
(lp462
(g3
I26569
F59.43
tp463
a(g5
I4
F0.01
tp464
a(g7
I82
F0.18
tp465
a(g9
I125
F0.28
tp466
a(g11
I3
F0.01
tp467
a(g13
I917
F2.05
tp468
a(g15
I49
F0.11
tp469
a(g17
I126
F0.28
tp470
a(g19
I153
F0.34
tp471
a(g21
I185
F0.41
tp472
a(g23
I39
F0.09
tp473
a(g25
I7264
F16.25
tp474
a(g27
I391
F0.87
tp475
a(g29
I14
F0.03
tp476
a(g31
I209
F0.47
tp477
a(g33
I6065
F13.57
tp478
a(g35
I733
F1.64
tp479
a(g37
I1743
F3.9
tp480
a(g39
I1
F0.0
tp481
a(g41
I19
F0.04
tp482
asS'H63'
p483
(lp484
(g3
I242
F0.54
tp485
a(g5
I3
F0.01
tp486
a(g7
I1
F0.0
tp487
a(g9
I23
F0.05
tp488
a(g11
I11028
F24.67
tp489
a(g13
I87
F0.19
tp490
a(g15
I10
F0.02
tp491
a(g17
I146
F0.33
tp492
a(g19
I4
F0.01
tp493
a(g21
I10414
F23.3
tp494
a(g23
I220
F0.49
tp495
a(g25
I2
F0.0
tp496
a(g27
I29
F0.06
tp497
a(g29
I4
F0.01
tp498
a(g31
I9
F0.02
tp499
a(g33
I36
F0.08
tp500
a(g35
I12
F0.03
tp501
a(g37
I22383
F50.07
tp502
a(g39
I3
F0.01
tp503
a(g41
I38
F0.09
tp504
asS'H62'
p505
(lp506
(g3
I401
F0.9
tp507
a(g5
I14
F0.03
tp508
a(g7
I702
F1.57
tp509
a(g9
I84
F0.19
tp510
a(g11
I240
F0.54
tp511
a(g13
I215
F0.48
tp512
a(g15
I34
F0.08
tp513
a(g17
I28
F0.06
tp514
a(g19
I6845
F15.31
tp515
a(g21
I21
F0.05
tp516
a(g23
I30
F0.07
tp517
a(g25
I761
F1.7
tp518
a(g27
I1085
F2.43
tp519
a(g29
I470
F1.05
tp520
a(g31
I689
F1.54
tp521
a(g33
I32787
F73.34
tp522
a(g35
I192
F0.43
tp523
a(g37
I20
F0.04
tp524
a(g39
I4
F0.01
tp525
a(g41
I69
F0.15
tp526
asS'H65'
p527
(lp528
(g3
I119
F0.27
tp529
a(g5
I7
F0.02
tp530
a(g7
I1028
F2.3
tp531
a(g9
I97
F0.22
tp532
a(g11
I5
F0.01
tp533
a(g13
I31693
F70.9
tp534
a(g15
I543
F1.21
tp535
a(g17
I8
F0.02
tp536
a(g19
I10
F0.02
tp537
a(g21
I6
F0.01
tp538
a(g23
I0
F0.0
tp539
a(g25
I412
F0.92
tp540
a(g27
I38
F0.09
tp541
a(g29
I261
F0.58
tp542
a(g31
I137
F0.31
tp543
a(g33
I9707
F21.71
tp544
a(g35
I553
F1.24
tp545
a(g37
I72
F0.16
tp546
a(g39
I1
F0.0
tp547
a(g41
I3
F0.01
tp548
asS'H64'
p549
(lp550
(g3
I48
F0.11
tp551
a(g5
I0
F0.0
tp552
a(g7
I19
F0.04
tp553
a(g9
I1099
F2.46
tp554
a(g11
I2
F0.0
tp555
a(g13
I51
F0.11
tp556
a(g15
I102
F0.23
tp557
a(g17
I22
F0.05
tp558
a(g19
I28219
F63.13
tp559
a(g21
I70
F0.16
tp560
a(g23
I111
F0.25
tp561
a(g25
I259
F0.58
tp562
a(g27
I48
F0.11
tp563
a(g29
I10473
F23.43
tp564
a(g31
I3505
F7.84
tp565
a(g33
I98
F0.22
tp566
a(g35
I484
F1.08
tp567
a(g37
I25
F0.06
tp568
a(g39
I26
F0.06
tp569
a(g41
I40
F0.09
tp570
asS'H67'
p571
(lp572
(g3
I427
F0.96
tp573
a(g5
I51
F0.11
tp574
a(g7
I10
F0.02
tp575
a(g9
I0
F0.0
tp576
a(g11
I21069
F47.13
tp577
a(g13
I33
F0.07
tp578
a(g15
I3
F0.01
tp579
a(g17
I2551
F5.71
tp580
a(g19
I2
F0.0
tp581
a(g21
I2662
F5.95
tp582
a(g23
I139
F0.31
tp583
a(g25
I0
F0.0
tp584
a(g27
I13
F0.03
tp585
a(g29
I1
F0.0
tp586
a(g31
I1
F0.0
tp587
a(g33
I67
F0.15
tp588
a(g35
I25
F0.06
tp589
a(g37
I17617
F39.41
tp590
a(g39
I0
F0.0
tp591
a(g41
I24
F0.05
tp592
asS'H66'
p593
(lp594
(g3
I5
F0.01
tp595
a(g5
I3
F0.01
tp596
a(g7
I1
F0.0
tp597
a(g9
I1
F0.0
tp598
a(g11
I1
F0.0
tp599
a(g13
I33
F0.07
tp600
a(g15
I509
F1.14
tp601
a(g17
I4
F0.01
tp602
a(g19
I349
F0.78
tp603
a(g21
I55
F0.12
tp604
a(g23
I0
F0.0
tp605
a(g25
I1
F0.0
tp606
a(g27
I17
F0.04
tp607
a(g29
I1894
F4.24
tp608
a(g31
I41458
F92.74
tp609
a(g33
I65
F0.15
tp610
a(g35
I12
F0.03
tp611
a(g37
I1
F0.0
tp612
a(g39
I287
F0.64
tp613
a(g41
I0
F0.0
tp614
asS'H83'
p615
(lp616
(g3
I140
F0.31
tp617
a(g5
I1
F0.0
tp618
a(g7
I1548
F3.46
tp619
a(g9
I175
F0.39
tp620
a(g11
I2
F0.0
tp621
a(g13
I353
F0.79
tp622
a(g15
I11
F0.02
tp623
a(g17
I146
F0.33
tp624
a(g19
I4340
F9.71
tp625
a(g21
I9
F0.02
tp626
a(g23
I27
F0.06
tp627
a(g25
I83
F0.19
tp628
a(g27
I3
F0.01
tp629
a(g29
I169
F0.38
tp630
a(g31
I25020
F55.97
tp631
a(g33
I477
F1.07
tp632
a(g35
I12161
F27.2
tp633
a(g37
I24
F0.05
tp634
a(g39
I1
F0.0
tp635
a(g41
I3
F0.01
tp636
asS'H82'
p637
(lp638
(g3
I10
F0.02
tp639
a(g5
I4
F0.01
tp640
a(g7
I0
F0.0
tp641
a(g9
I7
F0.02
tp642
a(g11
I42
F0.09
tp643
a(g13
I6
F0.01
tp644
a(g15
I1
F0.0
tp645
a(g17
I1682
F3.76
tp646
a(g19
I16
F0.04
tp647
a(g21
I17631
F39.44
tp648
a(g23
I21807
F48.78
tp649
a(g25
I68
F0.15
tp650
a(g27
I20
F0.04
tp651
a(g29
I4
F0.01
tp652
a(g31
I12
F0.03
tp653
a(g33
I18
F0.04
tp654
a(g35
I67
F0.15
tp655
a(g37
I993
F2.22
tp656
a(g39
I2309
F5.17
tp657
a(g41
I1
F0.0
tp658
asS'H81'
p659
(lp660
(g3
I60
F0.13
tp661
a(g5
I1
F0.0
tp662
a(g7
I1942
F4.34
tp663
a(g9
I8282
F18.53
tp664
a(g11
I5
F0.01
tp665
a(g13
I35
F0.08
tp666
a(g15
I717
F1.6
tp667
a(g17
I81
F0.18
tp668
a(g19
I5548
F12.41
tp669
a(g21
I171
F0.38
tp670
a(g23
I83
F0.19
tp671
a(g25
I531
F1.19
tp672
a(g27
I6
F0.01
tp673
a(g29
I23912
F53.49
tp674
a(g31
I1248
F2.79
tp675
a(g33
I121
F0.27
tp676
a(g35
I1831
F4.1
tp677
a(g37
I62
F0.14
tp678
a(g39
I2
F0.0
tp679
a(g41
I57
F0.13
tp680
asS'H80'
p681
(lp682
(g3
I9
F0.02
tp683
a(g5
I1
F0.0
tp684
a(g7
I3
F0.01
tp685
a(g9
I12
F0.03
tp686
a(g11
I40
F0.09
tp687
a(g13
I1
F0.0
tp688
a(g15
I1
F0.0
tp689
a(g17
I67
F0.15
tp690
a(g19
I6
F0.01
tp691
a(g21
I35231
F78.81
tp692
a(g23
I8932
F19.98
tp693
a(g25
I3
F0.01
tp694
a(g27
I32
F0.07
tp695
a(g29
I24
F0.05
tp696
a(g31
I20
F0.04
tp697
a(g33
I15
F0.03
tp698
a(g35
I12
F0.03
tp699
a(g37
I270
F0.6
tp700
a(g39
I0
F0.0
tp701
a(g41
I6
F0.01
tp702
asS'H87'
p703
(lp704
(g3
I369
F0.83
tp705
a(g5
I0
F0.0
tp706
a(g7
I9
F0.02
tp707
a(g9
I2
F0.0
tp708
a(g11
I1
F0.0
tp709
a(g13
I12
F0.03
tp710
a(g15
I2
F0.0
tp711
a(g17
I6
F0.01
tp712
a(g19
I9
F0.02
tp713
a(g21
I9
F0.02
tp714
a(g23
I223
F0.5
tp715
a(g25
I8
F0.02
tp716
a(g27
I10
F0.02
tp717
a(g29
I0
F0.0
tp718
a(g31
I30
F0.07
tp719
a(g33
I816
F1.83
tp720
a(g35
I43184
F96.6
tp721
a(g37
I6
F0.01
tp722
a(g39
I1
F0.0
tp723
a(g41
I0
F0.0
tp724
asS'H86'
p725
(lp726
(g3
I8
F0.02
tp727
a(g5
I0
F0.0
tp728
a(g7
I44494
F99.53
tp729
a(g9
I67
F0.15
tp730
a(g11
I0
F0.0
tp731
a(g13
I51
F0.11
tp732
a(g15
I13
F0.03
tp733
a(g17
I0
F0.0
tp734
a(g19
I0
F0.0
tp735
a(g21
I1
F0.0
tp736
a(g23
I0
F0.0
tp737
a(g25
I38
F0.09
tp738
a(g27
I0
F0.0
tp739
a(g29
I2
F0.0
tp740
a(g31
I1
F0.0
tp741
a(g33
I1
F0.0
tp742
a(g35
I7
F0.02
tp743
a(g37
I9
F0.02
tp744
a(g39
I0
F0.0
tp745
a(g41
I9
F0.02
tp746
asS'H85'
p747
(lp748
(g3
I7776
F17.39
tp749
a(g5
I0
F0.0
tp750
a(g7
I6249
F13.98
tp751
a(g9
I25270
F56.53
tp752
a(g11
I0
F0.0
tp753
a(g13
I1182
F2.64
tp754
a(g15
I3
F0.01
tp755
a(g17
I8
F0.02
tp756
a(g19
I32
F0.07
tp757
a(g21
I47
F0.11
tp758
a(g23
I17
F0.04
tp759
a(g25
I39
F0.09
tp760
a(g27
I24
F0.05
tp761
a(g29
I22
F0.05
tp762
a(g31
I7
F0.02
tp763
a(g33
I2371
F5.3
tp764
a(g35
I110
F0.25
tp765
a(g37
I1533
F3.43
tp766
a(g39
I1
F0.0
tp767
a(g41
I1
F0.0
tp768
asS'H84'
p769
(lp770
(g3
I23911
F53.49
tp771
a(g5
I8
F0.02
tp772
a(g7
I632
F1.41
tp773
a(g9
I42
F0.09
tp774
a(g11
I363
F0.81
tp775
a(g13
I519
F1.16
tp776
a(g15
I48
F0.11
tp777
a(g17
I285
F0.64
tp778
a(g19
I8
F0.02
tp779
a(g21
I207
F0.46
tp780
a(g23
I18
F0.04
tp781
a(g25
I43
F0.1
tp782
a(g27
I4773
F10.68
tp783
a(g29
I1011
F2.26
tp784
a(g31
I61
F0.14
tp785
a(g33
I8193
F18.33
tp786
a(g35
I2117
F4.74
tp787
a(g37
I2333
F5.22
tp788
a(g39
I0
F0.0
tp789
a(g41
I121
F0.27
tp790
asS'H89'
p791
(lp792
(g3
I198
F0.44
tp793
a(g5
I1
F0.0
tp794
a(g7
I22
F0.05
tp795
a(g9
I82
F0.18
tp796
a(g11
I303
F0.68
tp797
a(g13
I69
F0.15
tp798
a(g15
I10
F0.02
tp799
a(g17
I2659
F5.95
tp800
a(g19
I272
F0.61
tp801
a(g21
I2609
F5.84
tp802
a(g23
I2634
F5.89
tp803
a(g25
I3
F0.01
tp804
a(g27
I1
F0.0
tp805
a(g29
I10
F0.02
tp806
a(g31
I147
F0.33
tp807
a(g33
I28
F0.06
tp808
a(g35
I3356
F7.51
tp809
a(g37
I32282
F72.21
tp810
a(g39
I6
F0.01
tp811
a(g41
I8
F0.02
tp812
asS'H88'
p813
(lp814
(g3
I43437
F97.17
tp815
a(g5
I3
F0.01
tp816
a(g7
I12
F0.03
tp817
a(g9
I0
F0.0
tp818
a(g11
I2
F0.0
tp819
a(g13
I1025
F2.29
tp820
a(g15
I0
F0.0
tp821
a(g17
I0
F0.0
tp822
a(g19
I1
F0.0
tp823
a(g21
I2
F0.0
tp824
a(g23
I0
F0.0
tp825
a(g25
I0
F0.0
tp826
a(g27
I9
F0.02
tp827
a(g29
I0
F0.0
tp828
a(g31
I4
F0.01
tp829
a(g33
I97
F0.22
tp830
a(g35
I52
F0.12
tp831
a(g37
I49
F0.11
tp832
a(g39
I0
F0.0
tp833
a(g41
I0
F0.0
tp834
asS'H82B'
p835
(lp836
(g3
I139
F0.31
tp837
a(g5
I12
F0.03
tp838
a(g7
I288
F0.65
tp839
a(g9
I4
F0.01
tp840
a(g11
I77
F0.17
tp841
a(g13
I2342
F5.25
tp842
a(g15
I14
F0.03
tp843
a(g17
I40
F0.09
tp844
a(g19
I46
F0.1
tp845
a(g21
I61
F0.14
tp846
a(g23
I8
F0.02
tp847
a(g25
I2744
F6.15
tp848
a(g27
I40
F0.09
tp849
a(g29
I0
F0.0
tp850
a(g31
I1789
F4.01
tp851
a(g33
I36478
F81.76
tp852
a(g35
I470
F1.05
tp853
a(g37
I16
F0.04
tp854
a(g39
I9
F0.02
tp855
a(g41
I34
F0.08
tp856
asS'H68'
p857
(lp858
(g3
I611
F1.37
tp859
a(g5
I1
F0.0
tp860
a(g7
I24
F0.05
tp861
a(g9
I3
F0.01
tp862
a(g11
I65
F0.15
tp863
a(g13
I19
F0.04
tp864
a(g15
I13
F0.03
tp865
a(g17
I967
F2.16
tp866
a(g19
I34
F0.08
tp867
a(g21
I31
F0.07
tp868
a(g23
I37
F0.08
tp869
a(g25
I168
F0.38
tp870
a(g27
I8
F0.02
tp871
a(g29
I7
F0.02
tp872
a(g31
I40
F0.09
tp873
a(g33
I2858
F6.39
tp874
a(g35
I39422
F88.19
tp875
a(g37
I336
F0.75
tp876
a(g39
I0
F0.0
tp877
a(g41
I53
F0.12
tp878
asS'H78'
p879
(lp880
(g3
I10557
F23.62
tp881
a(g5
I5
F0.01
tp882
a(g7
I29
F0.06
tp883
a(g9
I8
F0.02
tp884
a(g11
I8782
F19.65
tp885
a(g13
I81
F0.18
tp886
a(g15
I6
F0.01
tp887
a(g17
I281
F0.63
tp888
a(g19
I2
F0.0
tp889
a(g21
I18557
F41.51
tp890
a(g23
I290
F0.65
tp891
a(g25
I10
F0.02
tp892
a(g27
I20
F0.04
tp893
a(g29
I33
F0.07
tp894
a(g31
I2
F0.0
tp895
a(g33
I164
F0.37
tp896
a(g35
I235
F0.53
tp897
a(g37
I5597
F12.52
tp898
a(g39
I4
F0.01
tp899
a(g41
I32
F0.07
tp900
asS'H79'
p901
(lp902
(g3
I35
F0.08
tp903
a(g5
I52
F0.12
tp904
a(g7
I284
F0.64
tp905
a(g9
I16
F0.04
tp906
a(g11
I2578
F5.77
tp907
a(g13
I7
F0.02
tp908
a(g15
I1456
F3.26
tp909
a(g17
I34
F0.08
tp910
a(g19
I8
F0.02
tp911
a(g21
I107
F0.24
tp912
a(g23
I24
F0.05
tp913
a(g25
I136
F0.3
tp914
a(g27
I11
F0.02
tp915
a(g29
I21
F0.05
tp916
a(g31
I7
F0.02
tp917
a(g33
I9847
F22.03
tp918
a(g35
I93
F0.21
tp919
a(g37
I1588
F3.55
tp920
a(g39
I30
F0.07
tp921
a(g41
I28365
F63.45
tp922
asS'H76'
p923
(lp924
(g3
I140
F0.31
tp925
a(g5
I1
F0.0
tp926
a(g7
I1300
F2.91
tp927
a(g9
I371
F0.83
tp928
a(g11
I751
F1.68
tp929
a(g13
I438
F0.98
tp930
a(g15
I121
F0.27
tp931
a(g17
I44
F0.1
tp932
a(g19
I894
F2.0
tp933
a(g21
I6
F0.01
tp934
a(g23
I16
F0.04
tp935
a(g25
I29387
F65.74
tp936
a(g27
I11
F0.02
tp937
a(g29
I56
F0.13
tp938
a(g31
I461
F1.03
tp939
a(g33
I9702
F21.7
tp940
a(g35
I911
F2.04
tp941
a(g37
I9
F0.02
tp942
a(g39
I4
F0.01
tp943
a(g41
I72
F0.16
tp944
asS'H77'
p945
(lp946
(g3
I296
F0.66
tp947
a(g5
I2
F0.0
tp948
a(g7
I8
F0.02
tp949
a(g9
I108
F0.24
tp950
a(g11
I71
F0.16
tp951
a(g13
I10
F0.02
tp952
a(g15
I359
F0.8
tp953
a(g17
I766
F1.71
tp954
a(g19
I97
F0.22
tp955
a(g21
I238
F0.53
tp956
a(g23
I460
F1.03
tp957
a(g25
I53
F0.12
tp958
a(g27
I15
F0.03
tp959
a(g29
I10223
F22.87
tp960
a(g31
I243
F0.54
tp961
a(g33
I5806
F12.99
tp962
a(g35
I25733
F57.56
tp963
a(g37
I133
F0.3
tp964
a(g39
I7
F0.02
tp965
a(g41
I71
F0.16
tp966
asS'H74'
p967
(lp968
(g3
I6472
F14.48
tp969
a(g5
I2
F0.0
tp970
a(g7
I1102
F2.47
tp971
a(g9
I108
F0.24
tp972
a(g11
I327
F0.73
tp973
a(g13
I199
F0.45
tp974
a(g15
I185
F0.41
tp975
a(g17
I68
F0.15
tp976
a(g19
I7
F0.02
tp977
a(g21
I119
F0.27
tp978
a(g23
I12
F0.03
tp979
a(g25
I36
F0.08
tp980
a(g27
I365
F0.82
tp981
a(g29
I0
F0.0
tp982
a(g31
I40
F0.09
tp983
a(g33
I34914
F78.1
tp984
a(g35
I359
F0.8
tp985
a(g37
I133
F0.3
tp986
a(g39
I8
F0.02
tp987
a(g41
I242
F0.54
tp988
asS'H75'
p989
(lp990
(g3
I844
F1.89
tp991
a(g5
I0
F0.0
tp992
a(g7
I75
F0.17
tp993
a(g9
I1069
F2.39
tp994
a(g11
I21
F0.05
tp995
a(g13
I110
F0.25
tp996
a(g15
I18
F0.04
tp997
a(g17
I4120
F9.22
tp998
a(g19
I27785
F62.15
tp999
a(g21
I1244
F2.78
tp1000
a(g23
I436
F0.98
tp1001
a(g25
I884
F1.98
tp1002
a(g27
I15
F0.03
tp1003
a(g29
I464
F1.04
tp1004
a(g31
I1600
F3.58
tp1005
a(g33
I381
F0.85
tp1006
a(g35
I5203
F11.64
tp1007
a(g37
I410
F0.92
tp1008
a(g39
I7
F0.02
tp1009
a(g41
I9
F0.02
tp1010
asS'H72'
p1011
(lp1012
(g3
I68
F0.15
tp1013
a(g5
I0
F0.0
tp1014
a(g7
I42813
F95.77
tp1015
a(g9
I466
F1.04
tp1016
a(g11
I1
F0.0
tp1017
a(g13
I105
F0.23
tp1018
a(g15
I113
F0.25
tp1019
a(g17
I5
F0.01
tp1020
a(g19
I21
F0.05
tp1021
a(g21
I12
F0.03
tp1022
a(g23
I5
F0.01
tp1023
a(g25
I817
F1.83
tp1024
a(g27
I2
F0.0
tp1025
a(g29
I21
F0.05
tp1026
a(g31
I1
F0.0
tp1027
a(g33
I24
F0.05
tp1028
a(g35
I130
F0.29
tp1029
a(g37
I53
F0.12
tp1030
a(g39
I0
F0.0
tp1031
a(g41
I35
F0.08
tp1032
asS'H73'
p1033
(lp1034
(g3
I350
F0.78
tp1035
a(g5
I1
F0.0
tp1036
a(g7
I2202
F4.93
tp1037
a(g9
I1606
F3.59
tp1038
a(g11
I13
F0.03
tp1039
a(g13
I48
F0.11
tp1040
a(g15
I48
F0.11
tp1041
a(g17
I466
F1.04
tp1042
a(g19
I3453
F7.72
tp1043
a(g21
I87
F0.19
tp1044
a(g23
I351
F0.79
tp1045
a(g25
I17899
F40.04
tp1046
a(g27
I142
F0.32
tp1047
a(g29
I54
F0.12
tp1048
a(g31
I1584
F3.54
tp1049
a(g33
I540
F1.21
tp1050
a(g35
I15520
F34.72
tp1051
a(g37
I275
F0.62
tp1052
a(g39
I7
F0.02
tp1053
a(g41
I51
F0.11
tp1054
asS'H70'
p1055
(lp1056
(g3
I182
F0.41
tp1057
a(g5
I2
F0.0
tp1058
a(g7
I83
F0.19
tp1059
a(g9
I59
F0.13
tp1060
a(g11
I162
F0.36
tp1061
a(g13
I7
F0.02
tp1062
a(g15
I11
F0.02
tp1063
a(g17
I97
F0.22
tp1064
a(g19
I40
F0.09
tp1065
a(g21
I128
F0.29
tp1066
a(g23
I4
F0.01
tp1067
a(g25
I1639
F3.67
tp1068
a(g27
I50
F0.11
tp1069
a(g29
I6
F0.01
tp1070
a(g31
I7
F0.02
tp1071
a(g33
I31980
F71.54
tp1072
a(g35
I9948
F22.25
tp1073
a(g37
I15
F0.03
tp1074
a(g39
I4
F0.01
tp1075
a(g41
I273
F0.61
tp1076
asS'H71'
p1077
(lp1078
(g3
I4932
F11.03
tp1079
a(g5
I1
F0.0
tp1080
a(g7
I45
F0.1
tp1081
a(g9
I198
F0.44
tp1082
a(g11
I14
F0.03
tp1083
a(g13
I198
F0.44
tp1084
a(g15
I15
F0.03
tp1085
a(g17
I667
F1.49
tp1086
a(g19
I1744
F3.9
tp1087
a(g21
I849
F1.9
tp1088
a(g23
I102
F0.23
tp1089
a(g25
I1
F0.0
tp1090
a(g27
I1615
F3.61
tp1091
a(g29
I42
F0.09
tp1092
a(g31
I26430
F59.12
tp1093
a(g33
I249
F0.56
tp1094
a(g35
I1236
F2.76
tp1095
a(g37
I6308
F14.11
tp1096
a(g39
I44
F0.1
tp1097
a(g41
I2
F0.0
tp1098
asS'H18'
p1099
(lp1100
(g3
I37
F0.09
tp1101
a(g5
I7
F0.02
tp1102
a(g7
I1
F0.0
tp1103
a(g9
I8
F0.02
tp1104
a(g11
I13
F0.03
tp1105
a(g13
I2
F0.01
tp1106
a(g15
I2
F0.01
tp1107
a(g17
I47
F0.12
tp1108
a(g19
I1
F0.0
tp1109
a(g21
I30310
F77.42
tp1110
a(g23
I194
F0.5
tp1111
a(g25
I0
F0.0
tp1112
a(g27
I55
F0.14
tp1113
a(g29
I41
F0.1
tp1114
a(g31
I60
F0.15
tp1115
a(g33
I21
F0.05
tp1116
a(g35
I3
F0.01
tp1117
a(g37
I8334
F21.29
tp1118
a(g39
I4
F0.01
tp1119
a(g41
I0
F0.0
tp1120
asS'H19'
p1121
(lp1122
(g3
I42
F0.11
tp1123
a(g5
I2
F0.01
tp1124
a(g7
I4
F0.01
tp1125
a(g9
I87
F0.22
tp1126
a(g11
I16
F0.04
tp1127
a(g13
I57
F0.14
tp1128
a(g15
I4
F0.01
tp1129
a(g17
I43
F0.11
tp1130
a(g19
I8204
F20.77
tp1131
a(g21
I16
F0.04
tp1132
a(g23
I29
F0.07
tp1133
a(g25
I79
F0.2
tp1134
a(g27
I32
F0.08
tp1135
a(g29
I34
F0.09
tp1136
a(g31
I20896
F52.91
tp1137
a(g33
I8115
F20.55
tp1138
a(g35
I1801
F4.56
tp1139
a(g37
I6
F0.02
tp1140
a(g39
I3
F0.01
tp1141
a(g41
I8
F0.02
tp1142
asS'H10'
p1143
(lp1144
(g3
I764
F2.22
tp1145
a(g5
I4
F0.01
tp1146
a(g7
I915
F2.66
tp1147
a(g9
I7976
F23.22
tp1148
a(g11
I2
F0.01
tp1149
a(g13
I22421
F65.28
tp1150
a(g15
I23
F0.07
tp1151
a(g17
I7
F0.02
tp1152
a(g19
I27
F0.08
tp1153
a(g21
I50
F0.15
tp1154
a(g23
I6
F0.02
tp1155
a(g25
I90
F0.26
tp1156
a(g27
I27
F0.08
tp1157
a(g29
I501
F1.46
tp1158
a(g31
I263
F0.77
tp1159
a(g33
I582
F1.69
tp1160
a(g35
I401
F1.17
tp1161
a(g37
I261
F0.76
tp1162
a(g39
I1
F0.0
tp1163
a(g41
I7
F0.02
tp1164
asS'H11'
p1165
(lp1166
(g3
I95
F0.28
tp1167
a(g5
I3
F0.01
tp1168
a(g7
I26
F0.08
tp1169
a(g9
I15
F0.04
tp1170
a(g11
I193
F0.56
tp1171
a(g13
I24
F0.07
tp1172
a(g15
I1
F0.0
tp1173
a(g17
I165
F0.48
tp1174
a(g19
I9
F0.03
tp1175
a(g21
I19803
F57.93
tp1176
a(g23
I648
F1.9
tp1177
a(g25
I3
F0.01
tp1178
a(g27
I28
F0.08
tp1179
a(g29
I25
F0.07
tp1180
a(g31
I44
F0.13
tp1181
a(g33
I174
F0.51
tp1182
a(g35
I19
F0.06
tp1183
a(g37
I12823
F37.51
tp1184
a(g39
I73
F0.21
tp1185
a(g41
I0
F0.0
tp1186
asS'H12'
p1187
(lp1188
(g3
I282
F0.82
tp1189
a(g5
I1
F0.0
tp1190
a(g7
I4
F0.01
tp1191
a(g9
I129
F0.37
tp1192
a(g11
I21
F0.06
tp1193
a(g13
I98
F0.28
tp1194
a(g15
I0
F0.0
tp1195
a(g17
I586
F1.7
tp1196
a(g19
I9364
F27.19
tp1197
a(g21
I1508
F4.38
tp1198
a(g23
I45
F0.13
tp1199
a(g25
I25
F0.07
tp1200
a(g27
I7
F0.02
tp1201
a(g29
I50
F0.15
tp1202
a(g31
I381
F1.11
tp1203
a(g33
I26
F0.08
tp1204
a(g35
I50
F0.15
tp1205
a(g37
I21822
F63.36
tp1206
a(g39
I3
F0.01
tp1207
a(g41
I8
F0.02
tp1208
asS'H13'
p1209
(lp1210
(g3
I23
F0.07
tp1211
a(g5
I1
F0.0
tp1212
a(g7
I7
F0.02
tp1213
a(g9
I384
F1.1
tp1214
a(g11
I0
F0.0
tp1215
a(g13
I17
F0.05
tp1216
a(g15
I133
F0.38
tp1217
a(g17
I10
F0.03
tp1218
a(g19
I18030
F51.66
tp1219
a(g21
I41
F0.12
tp1220
a(g23
I46
F0.13
tp1221
a(g25
I107
F0.31
tp1222
a(g27
I90
F0.26
tp1223
a(g29
I14778
F42.34
tp1224
a(g31
I913
F2.62
tp1225
a(g33
I76
F0.22
tp1226
a(g35
I199
F0.57
tp1227
a(g37
I9
F0.03
tp1228
a(g39
I8
F0.02
tp1229
a(g41
I3
F0.01
tp1230
asS'H14'
p1231
(lp1232
(g3
I254
F0.72
tp1233
a(g5
I1
F0.0
tp1234
a(g7
I29
F0.08
tp1235
a(g9
I1
F0.0
tp1236
a(g11
I13
F0.04
tp1237
a(g13
I7
F0.02
tp1238
a(g15
I8
F0.02
tp1239
a(g17
I24
F0.07
tp1240
a(g19
I5
F0.01
tp1241
a(g21
I227
F0.64
tp1242
a(g23
I1
F0.0
tp1243
a(g25
I3
F0.01
tp1244
a(g27
I33890
F96.21
tp1245
a(g29
I4
F0.01
tp1246
a(g31
I80
F0.23
tp1247
a(g33
I426
F1.21
tp1248
a(g35
I173
F0.49
tp1249
a(g37
I55
F0.16
tp1250
a(g39
I3
F0.01
tp1251
a(g41
I9
F0.03
tp1252
asS'H15'
p1253
(lp1254
(g3
I56
F0.15
tp1255
a(g5
I6
F0.02
tp1256
a(g7
I30
F0.08
tp1257
a(g9
I76
F0.21
tp1258
a(g11
I5
F0.01
tp1259
a(g13
I28911
F78.6
tp1260
a(g15
I2
F0.01
tp1261
a(g17
I0
F0.0
tp1262
a(g19
I6
F0.02
tp1263
a(g21
I36
F0.1
tp1264
a(g23
I16
F0.04
tp1265
a(g25
I2
F0.01
tp1266
a(g27
I35
F0.1
tp1267
a(g29
I3
F0.01
tp1268
a(g31
I43
F0.12
tp1269
a(g33
I6632
F18.03
tp1270
a(g35
I858
F2.33
tp1271
a(g37
I12
F0.03
tp1272
a(g39
I48
F0.13
tp1273
a(g41
I0
F0.0
tp1274
asS'H16'
p1275
(lp1276
(g3
I5579
F15.02
tp1277
a(g5
I2
F0.01
tp1278
a(g7
I528
F1.42
tp1279
a(g9
I6417
F17.28
tp1280
a(g11
I277
F0.75
tp1281
a(g13
I13940
F37.53
tp1282
a(g15
I7
F0.02
tp1283
a(g17
I4
F0.01
tp1284
a(g19
I251
F0.68
tp1285
a(g21
I10
F0.03
tp1286
a(g23
I24
F0.06
tp1287
a(g25
I9
F0.02
tp1288
a(g27
I30
F0.08
tp1289
a(g29
I3170
F8.54
tp1290
a(g31
I4118
F11.09
tp1291
a(g33
I2266
F6.1
tp1292
a(g35
I410
F1.1
tp1293
a(g37
I56
F0.15
tp1294
a(g39
I23
F0.06
tp1295
a(g41
I7
F0.02
tp1296
asS'H17'
p1297
(lp1298
(g3
I95
F0.24
tp1299
a(g5
I16
F0.04
tp1300
a(g7
I6
F0.02
tp1301
a(g9
I1
F0.0
tp1302
a(g11
I40
F0.1
tp1303
a(g13
I1
F0.0
tp1304
a(g15
I2
F0.01
tp1305
a(g17
I25
F0.06
tp1306
a(g19
I2
F0.01
tp1307
a(g21
I30
F0.08
tp1308
a(g23
I1
F0.0
tp1309
a(g25
I10
F0.03
tp1310
a(g27
I105
F0.26
tp1311
a(g29
I0
F0.0
tp1312
a(g31
I2
F0.01
tp1313
a(g33
I30448
F76.79
tp1314
a(g35
I8825
F22.26
tp1315
a(g37
I17
F0.04
tp1316
a(g39
I4
F0.01
tp1317
a(g41
I16
F0.04
tp1318
asS'H90'
p1319
(lp1320
(g3
I0
F0.0
tp1321
a(g5
I27
F0.06
tp1322
a(g7
I8
F0.02
tp1323
a(g9
I0
F0.0
tp1324
a(g11
I344
F0.77
tp1325
a(g13
I0
F0.0
tp1326
a(g15
I51
F0.11
tp1327
a(g17
I12
F0.03
tp1328
a(g19
I0
F0.0
tp1329
a(g21
I8
F0.02
tp1330
a(g23
I1
F0.0
tp1331
a(g25
I6
F0.01
tp1332
a(g27
I0
F0.0
tp1333
a(g29
I0
F0.0
tp1334
a(g31
I1
F0.0
tp1335
a(g33
I2
F0.0
tp1336
a(g35
I0
F0.0
tp1337
a(g37
I5
F0.01
tp1338
a(g39
I0
F0.0
tp1339
a(g41
I44232
F98.95
tp1340
asS'H91'
p1341
(lp1342
(g3
I0
F0.0
tp1343
a(g5
I39
F0.09
tp1344
a(g7
I6
F0.01
tp1345
a(g9
I0
F0.0
tp1346
a(g11
I4484
F10.03
tp1347
a(g13
I0
F0.0
tp1348
a(g15
I322
F0.72
tp1349
a(g17
I6
F0.01
tp1350
a(g19
I9
F0.02
tp1351
a(g21
I41
F0.09
tp1352
a(g23
I1
F0.0
tp1353
a(g25
I17
F0.04
tp1354
a(g27
I0
F0.0
tp1355
a(g29
I3
F0.01
tp1356
a(g31
I16
F0.04
tp1357
a(g33
I132
F0.3
tp1358
a(g35
I12
F0.03
tp1359
a(g37
I1
F0.0
tp1360
a(g39
I25
F0.06
tp1361
a(g41
I39582
F88.54
tp1362
asS'H92'
p1363
(lp1364
(g3
I2
F0.0
tp1365
a(g5
I44579
F99.72
tp1366
a(g7
I1
F0.0
tp1367
a(g9
I0
F0.0
tp1368
a(g11
I4
F0.01
tp1369
a(g13
I4
F0.01
tp1370
a(g15
I0
F0.0
tp1371
a(g17
I0
F0.0
tp1372
a(g19
I0
F0.0
tp1373
a(g21
I4
F0.01
tp1374
a(g23
I0
F0.0
tp1375
a(g25
I0
F0.0
tp1376
a(g27
I0
F0.0
tp1377
a(g29
I0
F0.0
tp1378
a(g31
I29
F0.06
tp1379
a(g33
I17
F0.04
tp1380
a(g35
I1
F0.0
tp1381
a(g37
I2
F0.0
tp1382
a(g39
I11
F0.02
tp1383
a(g41
I18
F0.04
tp1384
asS'H93'
p1385
(lp1386
(g3
I38973
F87.18
tp1387
a(g5
I15
F0.03
tp1388
a(g7
I8
F0.02
tp1389
a(g9
I32
F0.07
tp1390
a(g11
I15
F0.03
tp1391
a(g13
I367
F0.82
tp1392
a(g15
I8
F0.02
tp1393
a(g17
I88
F0.2
tp1394
a(g19
I27
F0.06
tp1395
a(g21
I55
F0.12
tp1396
a(g23
I34
F0.08
tp1397
a(g25
I25
F0.06
tp1398
a(g27
I16
F0.04
tp1399
a(g29
I7
F0.02
tp1400
a(g31
I24
F0.05
tp1401
a(g33
I327
F0.73
tp1402
a(g35
I1937
F4.33
tp1403
a(g37
I2725
F6.1
tp1404
a(g39
I9
F0.02
tp1405
a(g41
I8
F0.02
tp1406
asS'H94'
p1407
(lp1408
(g3
I428
F0.96
tp1409
a(g5
I68
F0.15
tp1410
a(g7
I24
F0.05
tp1411
a(g9
I99
F0.22
tp1412
a(g11
I32
F0.07
tp1413
a(g13
I643
F1.44
tp1414
a(g15
I744
F1.66
tp1415
a(g17
I233
F0.52
tp1416
a(g19
I8897
F19.9
tp1417
a(g21
I172
F0.38
tp1418
a(g23
I244
F0.55
tp1419
a(g25
I310
F0.69
tp1420
a(g27
I90
F0.2
tp1421
a(g29
I184
F0.41
tp1422
a(g31
I28411
F63.56
tp1423
a(g33
I1863
F4.17
tp1424
a(g35
I2005
F4.49
tp1425
a(g37
I141
F0.32
tp1426
a(g39
I42
F0.09
tp1427
a(g41
I62
F0.14
tp1428
asS'H95'
p1429
(lp1430
(g3
I2603
F6.52
tp1431
a(g5
I191
F0.48
tp1432
a(g7
I8915
F22.32
tp1433
a(g9
I3368
F8.43
tp1434
a(g11
I360
F0.9
tp1435
a(g13
I7499
F18.78
tp1436
a(g15
I1185
F2.97
tp1437
a(g17
I734
F1.84
tp1438
a(g19
I531
F1.33
tp1439
a(g21
I1911
F4.79
tp1440
a(g23
I349
F0.87
tp1441
a(g25
I589
F1.47
tp1442
a(g27
I827
F2.07
tp1443
a(g29
I1875
F4.7
tp1444
a(g31
I2261
F5.66
tp1445
a(g33
I2067
F5.18
tp1446
a(g35
I1123
F2.81
tp1447
a(g37
I2668
F6.68
tp1448
a(g39
I384
F0.96
tp1449
a(g41
I482
F1.21
tp1450
asS'H96'
p1451
(lp1452
(g3
I1912
F4.81
tp1453
a(g5
I280
F0.7
tp1454
a(g7
I1887
F4.75
tp1455
a(g9
I1120
F2.82
tp1456
a(g11
I1008
F2.54
tp1457
a(g13
I5552
F13.96
tp1458
a(g15
I835
F2.1
tp1459
a(g17
I1252
F3.15
tp1460
a(g19
I2157
F5.42
tp1461
a(g21
I3213
F8.08
tp1462
a(g23
I559
F1.41
tp1463
a(g25
I986
F2.48
tp1464
a(g27
I3582
F9.01
tp1465
a(g29
I1199
F3.02
tp1466
a(g31
I4866
F12.24
tp1467
a(g33
I3060
F7.7
tp1468
a(g35
I1776
F4.47
tp1469
a(g37
I1842
F4.63
tp1470
a(g39
I722
F1.82
tp1471
a(g41
I1919
F4.83
tp1472
asS'H97'
p1473
(lp1474
(g3
I2333
F5.89
tp1475
a(g5
I484
F1.22
tp1476
a(g7
I2063
F5.21
tp1477
a(g9
I1189
F3.0
tp1478
a(g11
I2030
F5.13
tp1479
a(g13
I6360
F16.07
tp1480
a(g15
I791
F2.0
tp1481
a(g17
I1265
F3.2
tp1482
a(g19
I660
F1.67
tp1483
a(g21
I1954
F4.94
tp1484
a(g23
I417
F1.05
tp1485
a(g25
I997
F2.52
tp1486
a(g27
I1958
F4.95
tp1487
a(g29
I683
F1.73
tp1488
a(g31
I3428
F8.66
tp1489
a(g33
I4176
F10.55
tp1490
a(g35
I1996
F5.04
tp1491
a(g37
I2195
F5.54
tp1492
a(g39
I1066
F2.69
tp1493
a(g41
I3527
F8.91
tp1494
asS'H98'
p1495
(lp1496
(g3
I2537
F6.45
tp1497
a(g5
I1177
F2.99
tp1498
a(g7
I2554
F6.49
tp1499
a(g9
I1486
F3.78
tp1500
a(g11
I1228
F3.12
tp1501
a(g13
I6175
F15.7
tp1502
a(g15
I638
F1.62
tp1503
a(g17
I1316
F3.35
tp1504
a(g19
I480
F1.22
tp1505
a(g21
I1898
F4.83
tp1506
a(g23
I602
F1.53
tp1507
a(g25
I1020
F2.59
tp1508
a(g27
I1562
F3.97
tp1509
a(g29
I706
F1.8
tp1510
a(g31
I2001
F5.09
tp1511
a(g33
I4259
F10.83
tp1512
a(g35
I1963
F4.99
tp1513
a(g37
I2186
F5.56
tp1514
a(g39
I1148
F2.92
tp1515
a(g41
I4384
F11.15
tp1516
asS'H99'
p1517
(lp1518
(g3
I2539
F6.56
tp1519
a(g5
I864
F2.23
tp1520
a(g7
I2649
F6.84
tp1521
a(g9
I881
F2.28
tp1522
a(g11
I1441
F3.72
tp1523
a(g13
I5593
F14.45
tp1524
a(g15
I488
F1.26
tp1525
a(g17
I1142
F2.95
tp1526
a(g19
I391
F1.01
tp1527
a(g21
I1641
F4.24
tp1528
a(g23
I555
F1.43
tp1529
a(g25
I987
F2.55
tp1530
a(g27
I1176
F3.04
tp1531
a(g29
I1000
F2.58
tp1532
a(g31
I2244
F5.8
tp1533
a(g33
I4963
F12.82
tp1534
a(g35
I2442
F6.31
tp1535
a(g37
I2063
F5.33
tp1536
a(g39
I1261
F3.26
tp1537
a(g41
I4376
F11.31
tp1538
asS'H8'
p1539
(lp1540
(g3
I170
F0.53
tp1541
a(g5
I1
F0.0
tp1542
a(g7
I7
F0.02
tp1543
a(g9
I54
F0.17
tp1544
a(g11
I31
F0.1
tp1545
a(g13
I31434
F98.56
tp1546
a(g15
I0
F0.0
tp1547
a(g17
I0
F0.0
tp1548
a(g19
I2
F0.01
tp1549
a(g21
I4
F0.01
tp1550
a(g23
I0
F0.0
tp1551
a(g25
I0
F0.0
tp1552
a(g27
I5
F0.02
tp1553
a(g29
I1
F0.0
tp1554
a(g31
I115
F0.36
tp1555
a(g33
I11
F0.03
tp1556
a(g35
I5
F0.02
tp1557
a(g37
I16
F0.05
tp1558
a(g39
I28
F0.09
tp1559
a(g41
I2
F0.01
tp1560
asS'H9'
p1561
(lp1562
(g3
I7708
F22.69
tp1563
a(g5
I1
F0.0
tp1564
a(g7
I34
F0.1
tp1565
a(g9
I90
F0.26
tp1566
a(g11
I1036
F3.05
tp1567
a(g13
I17215
F50.67
tp1568
a(g15
I5
F0.01
tp1569
a(g17
I5
F0.01
tp1570
a(g19
I5
F0.01
tp1571
a(g21
I38
F0.11
tp1572
a(g23
I1
F0.0
tp1573
a(g25
I11
F0.03
tp1574
a(g27
I5493
F16.17
tp1575
a(g29
I8
F0.02
tp1576
a(g31
I56
F0.16
tp1577
a(g33
I1499
F4.41
tp1578
a(g35
I366
F1.08
tp1579
a(g37
I78
F0.23
tp1580
a(g39
I2
F0.01
tp1581
a(g41
I307
F0.9
tp1582
asS'H112'
p1583
(lp1584
(g3
I173
F0.67
tp1585
a(g5
I22
F0.09
tp1586
a(g7
I48
F0.19
tp1587
a(g9
I7
F0.03
tp1588
a(g11
I140
F0.54
tp1589
a(g13
I24
F0.09
tp1590
a(g15
I6
F0.02
tp1591
a(g17
I4
F0.02
tp1592
a(g19
I1
F0.0
tp1593
a(g21
I161
F0.62
tp1594
a(g23
I0
F0.0
tp1595
a(g25
I6
F0.02
tp1596
a(g27
I148
F0.57
tp1597
a(g29
I3
F0.01
tp1598
a(g31
I17
F0.07
tp1599
a(g33
I24876
F96.36
tp1600
a(g35
I124
F0.48
tp1601
a(g37
I11
F0.04
tp1602
a(g39
I4
F0.02
tp1603
a(g41
I25
F0.1
tp1604
asS'H113'
p1605
(lp1606
(g3
I299
F1.21
tp1607
a(g5
I3
F0.01
tp1608
a(g7
I4
F0.02
tp1609
a(g9
I8
F0.03
tp1610
a(g11
I21
F0.08
tp1611
a(g13
I15
F0.06
tp1612
a(g15
I5
F0.02
tp1613
a(g17
I3
F0.01
tp1614
a(g19
I2
F0.01
tp1615
a(g21
I171
F0.69
tp1616
a(g23
I1
F0.0
tp1617
a(g25
I3
F0.01
tp1618
a(g27
I363
F1.46
tp1619
a(g29
I95
F0.38
tp1620
a(g31
I24
F0.1
tp1621
a(g33
I23594
F95.13
tp1622
a(g35
I155
F0.62
tp1623
a(g37
I16
F0.06
tp1624
a(g39
I2
F0.01
tp1625
a(g41
I4
F0.02
tp1626
asS'H110'
p1627
(lp1628
(g3
I351
F1.29
tp1629
a(g5
I11
F0.04
tp1630
a(g7
I4
F0.01
tp1631
a(g9
I1
F0.0
tp1632
a(g11
I20
F0.07
tp1633
a(g13
I10
F0.04
tp1634
a(g15
I99
F0.36
tp1635
a(g17
I1414
F5.19
tp1636
a(g19
I3
F0.01
tp1637
a(g21
I42
F0.15
tp1638
a(g23
I6
F0.02
tp1639
a(g25
I35
F0.13
tp1640
a(g27
I204
F0.75
tp1641
a(g29
I7
F0.03
tp1642
a(g31
I32
F0.12
tp1643
a(g33
I426
F1.56
tp1644
a(g35
I23557
F86.47
tp1645
a(g37
I1005
F3.69
tp1646
a(g39
I3
F0.01
tp1647
a(g41
I6
F0.02
tp1648
asS'H1'
p1649
(lp1650
(g3
I161
F0.63
tp1651
a(g5
I4
F0.02
tp1652
a(g7
I223
F0.88
tp1653
a(g9
I11445
F44.92
tp1654
a(g11
I4
F0.02
tp1655
a(g13
I192
F0.75
tp1656
a(g15
I49
F0.19
tp1657
a(g17
I5
F0.02
tp1658
a(g19
I71
F0.28
tp1659
a(g21
I405
F1.59
tp1660
a(g23
I8
F0.03
tp1661
a(g25
I4
F0.02
tp1662
a(g27
I90
F0.35
tp1663
a(g29
I12345
F48.46
tp1664
a(g31
I219
F0.86
tp1665
a(g33
I41
F0.16
tp1666
a(g35
I63
F0.25
tp1667
a(g37
I116
F0.46
tp1668
a(g39
I4
F0.02
tp1669
a(g41
I8
F0.03
tp1670
asS'H6'
p1671
(lp1672
(g3
I1618
F5.26
tp1673
a(g5
I4
F0.01
tp1674
a(g7
I177
F0.58
tp1675
a(g9
I18738
F60.96
tp1676
a(g11
I0
F0.0
tp1677
a(g13
I47
F0.15
tp1678
a(g15
I13
F0.04
tp1679
a(g17
I4
F0.01
tp1680
a(g19
I34
F0.11
tp1681
a(g21
I14
F0.05
tp1682
a(g23
I4
F0.01
tp1683
a(g25
I18
F0.06
tp1684
a(g27
I6
F0.02
tp1685
a(g29
I9760
F31.75
tp1686
a(g31
I20
F0.07
tp1687
a(g33
I115
F0.37
tp1688
a(g35
I35
F0.11
tp1689
a(g37
I26
F0.08
tp1690
a(g39
I7
F0.02
tp1691
a(g41
I4
F0.01
tp1692
asS'H7'
p1693
(lp1694
(g3
I189
F0.59
tp1695
a(g5
I5
F0.02
tp1696
a(g7
I5
F0.02
tp1697
a(g9
I2
F0.01
tp1698
a(g11
I140
F0.44
tp1699
a(g13
I73
F0.23
tp1700
a(g15
I0
F0.0
tp1701
a(g17
I4
F0.01
tp1702
a(g19
I22
F0.07
tp1703
a(g21
I48
F0.15
tp1704
a(g23
I1
F0.0
tp1705
a(g25
I4
F0.01
tp1706
a(g27
I87
F0.27
tp1707
a(g29
I4
F0.01
tp1708
a(g31
I72
F0.23
tp1709
a(g33
I29757
F93.25
tp1710
a(g35
I185
F0.58
tp1711
a(g37
I40
F0.13
tp1712
a(g39
I1239
F3.88
tp1713
a(g41
I19
F0.06
tp1714
asS'H4'
p1715
(lp1716
(g3
I28
F0.1
tp1717
a(g5
I19
F0.07
tp1718
a(g7
I0
F0.0
tp1719
a(g9
I9
F0.03
tp1720
a(g11
I30
F0.11
tp1721
a(g13
I25
F0.09
tp1722
a(g15
I2
F0.01
tp1723
a(g17
I37
F0.13
tp1724
a(g19
I0
F0.0
tp1725
a(g21
I27447
F96.57
tp1726
a(g23
I222
F0.78
tp1727
a(g25
I1
F0.0
tp1728
a(g27
I25
F0.09
tp1729
a(g29
I13
F0.05
tp1730
a(g31
I8
F0.03
tp1731
a(g33
I45
F0.16
tp1732
a(g35
I4
F0.01
tp1733
a(g37
I415
F1.46
tp1734
a(g39
I81
F0.28
tp1735
a(g41
I9
F0.03
tp1736
asS'H5'
p1737
(lp1738
(g3
I471
F1.61
tp1739
a(g5
I6
F0.02
tp1740
a(g7
I15
F0.05
tp1741
a(g9
I1450
F4.95
tp1742
a(g11
I12
F0.04
tp1743
a(g13
I49
F0.17
tp1744
a(g15
I63
F0.21
tp1745
a(g17
I31
F0.11
tp1746
a(g19
I441
F1.5
tp1747
a(g21
I5922
F20.2
tp1748
a(g23
I120
F0.41
tp1749
a(g25
I32
F0.11
tp1750
a(g27
I8
F0.03
tp1751
a(g29
I5168
F17.63
tp1752
a(g31
I193
F0.66
tp1753
a(g33
I166
F0.57
tp1754
a(g35
I54
F0.18
tp1755
a(g37
I15046
F51.32
tp1756
a(g39
I44
F0.15
tp1757
a(g41
I8
F0.03
tp1758
asS'H29'
p1759
(lp1760
(g3
I119
F0.27
tp1761
a(g5
I22
F0.05
tp1762
a(g7
I173
F0.39
tp1763
a(g9
I6
F0.01
tp1764
a(g11
I31363
F70.16
tp1765
a(g13
I207
F0.46
tp1766
a(g15
I25
F0.06
tp1767
a(g17
I4419
F9.89
tp1768
a(g19
I20
F0.04
tp1769
a(g21
I2162
F4.84
tp1770
a(g23
I473
F1.06
tp1771
a(g25
I285
F0.64
tp1772
a(g27
I36
F0.08
tp1773
a(g29
I3
F0.01
tp1774
a(g31
I32
F0.07
tp1775
a(g33
I1398
F3.13
tp1776
a(g35
I139
F0.31
tp1777
a(g37
I3174
F7.1
tp1778
a(g39
I20
F0.04
tp1779
a(g41
I612
F1.37
tp1780
asS'H28'
p1781
(lp1782
(g3
I619
F1.38
tp1783
a(g5
I18
F0.04
tp1784
a(g7
I596
F1.33
tp1785
a(g9
I149
F0.33
tp1786
a(g11
I111
F0.25
tp1787
a(g13
I248
F0.55
tp1788
a(g15
I32
F0.07
tp1789
a(g17
I2252
F5.04
tp1790
a(g19
I124
F0.28
tp1791
a(g21
I92
F0.21
tp1792
a(g23
I139
F0.31
tp1793
a(g25
I980
F2.19
tp1794
a(g27
I528
F1.18
tp1795
a(g29
I11
F0.02
tp1796
a(g31
I532
F1.19
tp1797
a(g33
I13715
F30.68
tp1798
a(g35
I24174
F54.08
tp1799
a(g37
I99
F0.22
tp1800
a(g39
I1
F0.0
tp1801
a(g41
I268
F0.6
tp1802
asS'H25'
p1803
(lp1804
(g3
I283
F0.71
tp1805
a(g5
I14
F0.04
tp1806
a(g7
I9
F0.02
tp1807
a(g9
I16
F0.04
tp1808
a(g11
I275
F0.69
tp1809
a(g13
I25
F0.06
tp1810
a(g15
I23
F0.06
tp1811
a(g17
I4
F0.01
tp1812
a(g19
I2
F0.01
tp1813
a(g21
I34
F0.09
tp1814
a(g23
I0
F0.0
tp1815
a(g25
I11
F0.03
tp1816
a(g27
I139
F0.35
tp1817
a(g29
I1
F0.0
tp1818
a(g31
I5
F0.01
tp1819
a(g33
I37401
F93.52
tp1820
a(g35
I120
F0.3
tp1821
a(g37
I4
F0.01
tp1822
a(g39
I0
F0.0
tp1823
a(g41
I1615
F4.04
tp1824
asS'H24'
p1825
(lp1826
(g3
I24399
F61.01
tp1827
a(g5
I13
F0.03
tp1828
a(g7
I80
F0.2
tp1829
a(g9
I6
F0.02
tp1830
a(g11
I700
F1.75
tp1831
a(g13
I2290
F5.73
tp1832
a(g15
I2
F0.01
tp1833
a(g17
I1735
F4.34
tp1834
a(g19
I1
F0.0
tp1835
a(g21
I78
F0.2
tp1836
a(g23
I4
F0.01
tp1837
a(g25
I5
F0.01
tp1838
a(g27
I100
F0.25
tp1839
a(g29
I0
F0.0
tp1840
a(g31
I3
F0.01
tp1841
a(g33
I267
F0.67
tp1842
a(g35
I2405
F6.01
tp1843
a(g37
I7893
F19.74
tp1844
a(g39
I1
F0.0
tp1845
a(g41
I2
F0.01
tp1846
asS'H27'
p1847
(lp1848
(g3
I385
F0.86
tp1849
a(g5
I18
F0.04
tp1850
a(g7
I3374
F7.55
tp1851
a(g9
I239
F0.53
tp1852
a(g11
I21620
F48.36
tp1853
a(g13
I7774
F17.39
tp1854
a(g15
I76
F0.17
tp1855
a(g17
I240
F0.54
tp1856
a(g19
I18
F0.04
tp1857
a(g21
I515
F1.15
tp1858
a(g23
I16
F0.04
tp1859
a(g25
I166
F0.37
tp1860
a(g27
I12
F0.03
tp1861
a(g29
I10
F0.02
tp1862
a(g31
I67
F0.15
tp1863
a(g33
I1712
F3.83
tp1864
a(g35
I110
F0.25
tp1865
a(g37
I412
F0.92
tp1866
a(g39
I6
F0.01
tp1867
a(g41
I7919
F17.71
tp1868
asS'H26'
p1869
(lp1870
(g3
I217
F0.49
tp1871
a(g5
I6
F0.01
tp1872
a(g7
I585
F1.31
tp1873
a(g9
I1290
F2.89
tp1874
a(g11
I220
F0.49
tp1875
a(g13
I39382
F88.1
tp1876
a(g15
I13
F0.03
tp1877
a(g17
I447
F1.0
tp1878
a(g19
I45
F0.1
tp1879
a(g21
I728
F1.63
tp1880
a(g23
I11
F0.02
tp1881
a(g25
I93
F0.21
tp1882
a(g27
I20
F0.04
tp1883
a(g29
I28
F0.06
tp1884
a(g31
I298
F0.67
tp1885
a(g33
I323
F0.72
tp1886
a(g35
I777
F1.74
tp1887
a(g37
I193
F0.43
tp1888
a(g39
I15
F0.03
tp1889
a(g41
I7
F0.02
tp1890
asS'H21'
p1891
(lp1892
(g3
I147
F0.37
tp1893
a(g5
I14
F0.04
tp1894
a(g7
I1
F0.0
tp1895
a(g9
I0
F0.0
tp1896
a(g11
I42
F0.11
tp1897
a(g13
I0
F0.0
tp1898
a(g15
I7
F0.02
tp1899
a(g17
I102
F0.26
tp1900
a(g19
I9
F0.02
tp1901
a(g21
I6
F0.02
tp1902
a(g23
I8
F0.02
tp1903
a(g25
I44
F0.11
tp1904
a(g27
I60
F0.15
tp1905
a(g29
I2
F0.01
tp1906
a(g31
I6
F0.02
tp1907
a(g33
I30523
F76.34
tp1908
a(g35
I8982
F22.46
tp1909
a(g37
I5
F0.01
tp1910
a(g39
I2
F0.01
tp1911
a(g41
I18
F0.05
tp1912
asS'H20'
p1913
(lp1914
(g3
I78
F0.2
tp1915
a(g5
I0
F0.0
tp1916
a(g7
I2
F0.01
tp1917
a(g9
I0
F0.0
tp1918
a(g11
I80
F0.2
tp1919
a(g13
I2
F0.01
tp1920
a(g15
I3
F0.01
tp1921
a(g17
I2900
F7.29
tp1922
a(g19
I0
F0.0
tp1923
a(g21
I28693
F72.11
tp1924
a(g23
I27
F0.07
tp1925
a(g25
I0
F0.0
tp1926
a(g27
I40
F0.1
tp1927
a(g29
I1
F0.0
tp1928
a(g31
I7
F0.02
tp1929
a(g33
I19
F0.05
tp1930
a(g35
I6
F0.02
tp1931
a(g37
I7888
F19.82
tp1932
a(g39
I2
F0.01
tp1933
a(g41
I30
F0.08
tp1934
asS'H23'
p1935
(lp1936
(g3
I19978
F49.95
tp1937
a(g5
I0
F0.0
tp1938
a(g7
I103
F0.26
tp1939
a(g9
I838
F2.1
tp1940
a(g11
I4
F0.01
tp1941
a(g13
I517
F1.29
tp1942
a(g15
I10
F0.03
tp1943
a(g17
I143
F0.36
tp1944
a(g19
I8387
F20.97
tp1945
a(g21
I60
F0.15
tp1946
a(g23
I30
F0.08
tp1947
a(g25
I104
F0.26
tp1948
a(g27
I14
F0.04
tp1949
a(g29
I506
F1.27
tp1950
a(g31
I401
F1.0
tp1951
a(g33
I1074
F2.69
tp1952
a(g35
I5262
F13.16
tp1953
a(g37
I1586
F3.97
tp1954
a(g39
I965
F2.41
tp1955
a(g41
I4
F0.01
tp1956
asS'H22'
p1957
(lp1958
(g3
I2
F0.01
tp1959
a(g5
I39889
F99.72
tp1960
a(g7
I0
F0.0
tp1961
a(g9
I0
F0.0
tp1962
a(g11
I7
F0.02
tp1963
a(g13
I6
F0.02
tp1964
a(g15
I1
F0.0
tp1965
a(g17
I0
F0.0
tp1966
a(g19
I0
F0.0
tp1967
a(g21
I5
F0.01
tp1968
a(g23
I1
F0.0
tp1969
a(g25
I0
F0.0
tp1970
a(g27
I0
F0.0
tp1971
a(g29
I0
F0.0
tp1972
a(g31
I41
F0.1
tp1973
a(g33
I16
F0.04
tp1974
a(g35
I2
F0.01
tp1975
a(g37
I1
F0.0
tp1976
a(g39
I8
F0.02
tp1977
a(g41
I18
F0.05
tp1978
asS'H105'
p1979
(lp1980
(g3
I25
F0.07
tp1981
a(g5
I1
F0.0
tp1982
a(g7
I6
F0.02
tp1983
a(g9
I71
F0.2
tp1984
a(g11
I2
F0.01
tp1985
a(g13
I10
F0.03
tp1986
a(g15
I286
F0.82
tp1987
a(g17
I3
F0.01
tp1988
a(g19
I1422
F4.1
tp1989
a(g21
I242
F0.7
tp1990
a(g23
I2
F0.01
tp1991
a(g25
I31
F0.09
tp1992
a(g27
I494
F1.42
tp1993
a(g29
I28951
F83.45
tp1994
a(g31
I3018
F8.7
tp1995
a(g33
I34
F0.1
tp1996
a(g35
I44
F0.13
tp1997
a(g37
I3
F0.01
tp1998
a(g39
I2
F0.01
tp1999
a(g41
I4
F0.01
tp2000
asS'H104'
p2001
(lp2002
(g3
I50
F0.14
tp2003
a(g5
I4
F0.01
tp2004
a(g7
I48
F0.13
tp2005
a(g9
I3
F0.01
tp2006
a(g11
I1
F0.0
tp2007
a(g13
I36251
F99.36
tp2008
a(g15
I0
F0.0
tp2009
a(g17
I0
F0.0
tp2010
a(g19
I0
F0.0
tp2011
a(g21
I11
F0.03
tp2012
a(g23
I0
F0.0
tp2013
a(g25
I0
F0.0
tp2014
a(g27
I11
F0.03
tp2015
a(g29
I2
F0.01
tp2016
a(g31
I8
F0.02
tp2017
a(g33
I77
F0.21
tp2018
a(g35
I2
F0.01
tp2019
a(g37
I9
F0.02
tp2020
a(g39
I0
F0.0
tp2021
a(g41
I0
F0.0
tp2022
asS'H107'
p2023
(lp2024
(g3
I642
F1.88
tp2025
a(g5
I2
F0.01
tp2026
a(g7
I9
F0.03
tp2027
a(g9
I3
F0.01
tp2028
a(g11
I7
F0.02
tp2029
a(g13
I5
F0.01
tp2030
a(g15
I26
F0.08
tp2031
a(g17
I630
F1.84
tp2032
a(g19
I12
F0.04
tp2033
a(g21
I36
F0.11
tp2034
a(g23
I16
F0.05
tp2035
a(g25
I148
F0.43
tp2036
a(g27
I130
F0.38
tp2037
a(g29
I16
F0.05
tp2038
a(g31
I15
F0.04
tp2039
a(g33
I629
F1.84
tp2040
a(g35
I31686
F92.79
tp2041
a(g37
I116
F0.34
tp2042
a(g39
I1
F0.0
tp2043
a(g41
I7
F0.02
tp2044
asS'H106'
p2045
(lp2046
(g3
I9
F0.03
tp2047
a(g5
I3
F0.01
tp2048
a(g7
I9
F0.03
tp2049
a(g9
I34
F0.1
tp2050
a(g11
I2
F0.01
tp2051
a(g13
I34331
F99.65
tp2052
a(g15
I1
F0.0
tp2053
a(g17
I0
F0.0
tp2054
a(g19
I1
F0.0
tp2055
a(g21
I1
F0.0
tp2056
a(g23
I0
F0.0
tp2057
a(g25
I2
F0.01
tp2058
a(g27
I4
F0.01
tp2059
a(g29
I1
F0.0
tp2060
a(g31
I30
F0.09
tp2061
a(g33
I9
F0.03
tp2062
a(g35
I0
F0.0
tp2063
a(g37
I4
F0.01
tp2064
a(g39
I2
F0.01
tp2065
a(g41
I0
F0.0
tp2066
asS'H101'
p2067
(lp2068
(g3
I606
F1.66
tp2069
a(g5
I24
F0.07
tp2070
a(g7
I30225
F82.77
tp2071
a(g9
I843
F2.31
tp2072
a(g11
I139
F0.38
tp2073
a(g13
I1068
F2.92
tp2074
a(g15
I416
F1.14
tp2075
a(g17
I83
F0.23
tp2076
a(g19
I80
F0.22
tp2077
a(g21
I165
F0.45
tp2078
a(g23
I22
F0.06
tp2079
a(g25
I486
F1.33
tp2080
a(g27
I230
F0.63
tp2081
a(g29
I657
F1.8
tp2082
a(g31
I393
F1.08
tp2083
a(g33
I311
F0.85
tp2084
a(g35
I162
F0.44
tp2085
a(g37
I297
F0.81
tp2086
a(g39
I73
F0.2
tp2087
a(g41
I221
F0.61
tp2088
asS'H100'
p2089
(lp2090
(g3
I2476
F6.55
tp2091
a(g5
I455
F1.2
tp2092
a(g7
I2794
F7.39
tp2093
a(g9
I859
F2.27
tp2094
a(g11
I1713
F4.53
tp2095
a(g13
I6069
F16.06
tp2096
a(g15
I507
F1.34
tp2097
a(g17
I1033
F2.73
tp2098
a(g19
I306
F0.81
tp2099
a(g21
I2213
F5.86
tp2100
a(g23
I420
F1.11
tp2101
a(g25
I1079
F2.86
tp2102
a(g27
I1330
F3.52
tp2103
a(g29
I422
F1.12
tp2104
a(g31
I1849
F4.89
tp2105
a(g33
I4660
F12.33
tp2106
a(g35
I2157
F5.71
tp2107
a(g37
I2137
F5.66
tp2108
a(g39
I1405
F3.72
tp2109
a(g41
I3889
F10.29
tp2110
asS'H103'
p2111
(lp2112
(g3
I12
F0.03
tp2113
a(g5
I19
F0.05
tp2114
a(g7
I0
F0.0
tp2115
a(g9
I8
F0.02
tp2116
a(g11
I14
F0.04
tp2117
a(g13
I68
F0.19
tp2118
a(g15
I0
F0.0
tp2119
a(g17
I3
F0.01
tp2120
a(g19
I4
F0.01
tp2121
a(g21
I76
F0.21
tp2122
a(g23
I3
F0.01
tp2123
a(g25
I0
F0.0
tp2124
a(g27
I2
F0.01
tp2125
a(g29
I1
F0.0
tp2126
a(g31
I54
F0.15
tp2127
a(g33
I16
F0.04
tp2128
a(g35
I6
F0.02
tp2129
a(g37
I15
F0.04
tp2130
a(g39
I36168
F99.12
tp2131
a(g41
I16
F0.04
tp2132
asS'H102'
p2133
(lp2134
(g3
I206
F0.56
tp2135
a(g5
I169
F0.46
tp2136
a(g7
I380
F1.04
tp2137
a(g9
I33
F0.09
tp2138
a(g11
I1101
F3.02
tp2139
a(g13
I103
F0.28
tp2140
a(g15
I1591
F4.36
tp2141
a(g17
I3233
F8.85
tp2142
a(g19
I50
F0.14
tp2143
a(g21
I2809
F7.69
tp2144
a(g23
I132
F0.36
tp2145
a(g25
I508
F1.39
tp2146
a(g27
I2986
F8.18
tp2147
a(g29
I136
F0.37
tp2148
a(g31
I113
F0.31
tp2149
a(g33
I1750
F4.79
tp2150
a(g35
I245
F0.67
tp2151
a(g37
I8622
F23.61
tp2152
a(g39
I53
F0.15
tp2153
a(g41
I12281
F33.64
tp2154
asS'H109'
p2155
(lp2156
(g3
I67
F0.24
tp2157
a(g5
I0
F0.0
tp2158
a(g7
I20
F0.07
tp2159
a(g9
I2
F0.01
tp2160
a(g11
I34
F0.12
tp2161
a(g13
I118
F0.43
tp2162
a(g15
I18
F0.07
tp2163
a(g17
I1306
F4.74
tp2164
a(g19
I1
F0.0
tp2165
a(g21
I196
F0.71
tp2166
a(g23
I2
F0.01
tp2167
a(g25
I2
F0.01
tp2168
a(g27
I12
F0.04
tp2169
a(g29
I1
F0.0
tp2170
a(g31
I8
F0.03
tp2171
a(g33
I172
F0.62
tp2172
a(g35
I11
F0.04
tp2173
a(g37
I25549
F92.78
tp2174
a(g39
I2
F0.01
tp2175
a(g41
I5
F0.02
tp2176
asS'H108'
p2177
(lp2178
(g3
I142
F0.43
tp2179
a(g5
I1
F0.0
tp2180
a(g7
I3
F0.01
tp2181
a(g9
I7
F0.02
tp2182
a(g11
I15
F0.05
tp2183
a(g13
I12
F0.04
tp2184
a(g15
I178
F0.54
tp2185
a(g17
I14
F0.04
tp2186
a(g19
I89
F0.27
tp2187
a(g21
I20549
F62.86
tp2188
a(g23
I2848
F8.71
tp2189
a(g25
I5
F0.02
tp2190
a(g27
I575
F1.76
tp2191
a(g29
I271
F0.83
tp2192
a(g31
I511
F1.56
tp2193
a(g33
I102
F0.31
tp2194
a(g35
I7021
F21.48
tp2195
a(g37
I244
F0.75
tp2196
a(g39
I89
F0.27
tp2197
a(g41
I2
F0.01
tp2198
asS'H100T'
p2199
(lp2200
(g3
I2
F2.41
tp2201
a(g5
I1
F1.2
tp2202
a(g7
I3
F3.61
tp2203
a(g9
I1
F1.2
tp2204
a(g11
I6
F7.23
tp2205
a(g13
I1
F1.2
tp2206
a(g15
I2
F2.41
tp2207
a(g17
I0
F0.0
tp2208
a(g19
I0
F0.0
tp2209
a(g21
I11
F13.25
tp2210
a(g23
I28
F33.73
tp2211
a(g25
I0
F0.0
tp2212
a(g27
I8
F9.64
tp2213
a(g29
I2
F2.41
tp2214
a(g31
I2
F2.41
tp2215
a(g33
I6
F7.23
tp2216
a(g35
I4
F4.82
tp2217
a(g37
I2
F2.41
tp2218
a(g39
I4
F4.82
tp2219
a(g41
I0
F0.0
tp2220
asS'H100R'
p2221
(lp2222
(g3
I7
F3.06
tp2223
a(g5
I0
F0.0
tp2224
a(g7
I7
F3.06
tp2225
a(g9
I1
F0.44
tp2226
a(g11
I14
F6.11
tp2227
a(g13
I28
F12.23
tp2228
a(g15
I16
F6.99
tp2229
a(g17
I4
F1.75
tp2230
a(g19
I1
F0.44
tp2231
a(g21
I22
F9.61
tp2232
a(g23
I35
F15.28
tp2233
a(g25
I1
F0.44
tp2234
a(g27
I13
F5.68
tp2235
a(g29
I3
F1.31
tp2236
a(g31
I9
F3.93
tp2237
a(g33
I27
F11.79
tp2238
a(g35
I2
F0.87
tp2239
a(g37
I7
F3.06
tp2240
a(g39
I10
F4.37
tp2241
a(g41
I22
F9.61
tp2242
asS'H100S'
p2243
(lp2244
(g3
I5
F3.62
tp2245
a(g5
I1
F0.72
tp2246
a(g7
I1
F0.72
tp2247
a(g9
I1
F0.72
tp2248
a(g11
I8
F5.8
tp2249
a(g13
I22
F15.94
tp2250
a(g15
I2
F1.45
tp2251
a(g17
I1
F0.72
tp2252
a(g19
I2
F1.45
tp2253
a(g21
I9
F6.52
tp2254
a(g23
I22
F15.94
tp2255
a(g25
I1
F0.72
tp2256
a(g27
I10
F7.25
tp2257
a(g29
I3
F2.17
tp2258
a(g31
I5
F3.62
tp2259
a(g33
I13
F9.42
tp2260
a(g35
I7
F5.07
tp2261
a(g37
I7
F5.07
tp2262
a(g39
I3
F2.17
tp2263
a(g41
I15
F10.87
tp2264
asS'H100P'
p2265
(lp2266
(g3
I17
F2.52
tp2267
a(g5
I2
F0.3
tp2268
a(g7
I21
F3.12
tp2269
a(g9
I7
F1.04
tp2270
a(g11
I62
F9.2
tp2271
a(g13
I74
F10.98
tp2272
a(g15
I9
F1.34
tp2273
a(g17
I7
F1.04
tp2274
a(g19
I5
F0.74
tp2275
a(g21
I20
F2.97
tp2276
a(g23
I146
F21.66
tp2277
a(g25
I17
F2.52
tp2278
a(g27
I26
F3.86
tp2279
a(g29
I3
F0.45
tp2280
a(g31
I14
F2.08
tp2281
a(g33
I41
F6.08
tp2282
a(g35
I21
F3.12
tp2283
a(g37
I40
F5.93
tp2284
a(g39
I49
F7.27
tp2285
a(g41
I93
F13.8
tp2286
asS'H100Q'
p2287
(lp2288
(g3
I12
F3.17
tp2289
a(g5
I3
F0.79
tp2290
a(g7
I11
F2.9
tp2291
a(g9
I4
F1.06
tp2292
a(g11
I19
F5.01
tp2293
a(g13
I51
F13.46
tp2294
a(g15
I9
F2.37
tp2295
a(g17
I2
F0.53
tp2296
a(g19
I2
F0.53
tp2297
a(g21
I25
F6.6
tp2298
a(g23
I59
F15.57
tp2299
a(g25
I4
F1.06
tp2300
a(g27
I27
F7.12
tp2301
a(g29
I3
F0.79
tp2302
a(g31
I11
F2.9
tp2303
a(g33
I25
F6.6
tp2304
a(g35
I14
F3.69
tp2305
a(g37
I14
F3.69
tp2306
a(g39
I24
F6.33
tp2307
a(g41
I60
F15.83
tp2308
asS'H100F'
p2309
(lp2310
(g3
I817
F4.13
tp2311
a(g5
I229
F1.16
tp2312
a(g7
I953
F4.82
tp2313
a(g9
I258
F1.3
tp2314
a(g11
I3110
F15.72
tp2315
a(g13
I2293
F11.59
tp2316
a(g15
I373
F1.89
tp2317
a(g17
I396
F2.0
tp2318
a(g19
I156
F0.79
tp2319
a(g21
I892
F4.51
tp2320
a(g23
I632
F3.2
tp2321
a(g25
I654
F3.31
tp2322
a(g27
I994
F5.03
tp2323
a(g29
I177
F0.89
tp2324
a(g31
I657
F3.32
tp2325
a(g33
I1057
F5.34
tp2326
a(g35
I545
F2.76
tp2327
a(g37
I464
F2.35
tp2328
a(g39
I1097
F5.55
tp2329
a(g41
I4012
F20.29
tp2330
asS'H100G'
p2331
(lp2332
(g3
I751
F4.77
tp2333
a(g5
I118
F0.75
tp2334
a(g7
I1018
F6.47
tp2335
a(g9
I192
F1.22
tp2336
a(g11
I1929
F12.25
tp2337
a(g13
I1706
F10.84
tp2338
a(g15
I280
F1.78
tp2339
a(g17
I264
F1.68
tp2340
a(g19
I157
F1.0
tp2341
a(g21
I718
F4.56
tp2342
a(g23
I738
F4.69
tp2343
a(g25
I440
F2.8
tp2344
a(g27
I729
F4.63
tp2345
a(g29
I121
F0.77
tp2346
a(g31
I509
F3.23
tp2347
a(g33
I952
F6.05
tp2348
a(g35
I392
F2.49
tp2349
a(g37
I425
F2.7
tp2350
a(g39
I753
F4.78
tp2351
a(g41
I3540
F22.49
tp2352
asS'H100D'
p2353
(lp2354
(g3
I1516
F5.44
tp2355
a(g5
I631
F2.26
tp2356
a(g7
I1440
F5.16
tp2357
a(g9
I389
F1.4
tp2358
a(g11
I3066
F11.0
tp2359
a(g13
I3199
F11.47
tp2360
a(g15
I658
F2.36
tp2361
a(g17
I627
F2.25
tp2362
a(g19
I346
F1.24
tp2363
a(g21
I1310
F4.7
tp2364
a(g23
I548
F1.97
tp2365
a(g25
I993
F3.56
tp2366
a(g27
I1037
F3.72
tp2367
a(g29
I251
F0.9
tp2368
a(g31
I877
F3.15
tp2369
a(g33
I2154
F7.73
tp2370
a(g35
I854
F3.06
tp2371
a(g37
I897
F3.22
tp2372
a(g39
I1696
F6.08
tp2373
a(g41
I5382
F19.3
tp2374
asS'H100E'
p2375
(lp2376
(g3
I1041
F4.34
tp2377
a(g5
I616
F2.57
tp2378
a(g7
I974
F4.06
tp2379
a(g9
I375
F1.56
tp2380
a(g11
I3339
F13.92
tp2381
a(g13
I2184
F9.11
tp2382
a(g15
I556
F2.32
tp2383
a(g17
I626
F2.61
tp2384
a(g19
I245
F1.02
tp2385
a(g21
I1074
F4.48
tp2386
a(g23
I615
F2.56
tp2387
a(g25
I667
F2.78
tp2388
a(g27
I1198
F4.99
tp2389
a(g29
I607
F2.53
tp2390
a(g31
I1128
F4.7
tp2391
a(g33
I1440
F6.0
tp2392
a(g35
I634
F2.64
tp2393
a(g37
I724
F3.02
tp2394
a(g39
I817
F3.41
tp2395
a(g41
I5111
F21.31
tp2396
asS'H100B'
p2397
(lp2398
(g3
I1755
F5.15
tp2399
a(g5
I623
F1.83
tp2400
a(g7
I1905
F5.6
tp2401
a(g9
I678
F1.99
tp2402
a(g11
I2511
F7.38
tp2403
a(g13
I4551
F13.37
tp2404
a(g15
I629
F1.85
tp2405
a(g17
I836
F2.46
tp2406
a(g19
I320
F0.94
tp2407
a(g21
I1571
F4.61
tp2408
a(g23
I486
F1.43
tp2409
a(g25
I1398
F4.11
tp2410
a(g27
I1335
F3.92
tp2411
a(g29
I983
F2.89
tp2412
a(g31
I1634
F4.8
tp2413
a(g33
I3760
F11.04
tp2414
a(g35
I1864
F5.47
tp2415
a(g37
I1428
F4.19
tp2416
a(g39
I1485
F4.36
tp2417
a(g41
I4279
F12.57
tp2418
asS'H100C'
p2419
(lp2420
(g3
I1947
F6.23
tp2421
a(g5
I935
F2.99
tp2422
a(g7
I1615
F5.16
tp2423
a(g9
I566
F1.81
tp2424
a(g11
I2713
F8.67
tp2425
a(g13
I4741
F15.16
tp2426
a(g15
I463
F1.48
tp2427
a(g17
I738
F2.36
tp2428
a(g19
I269
F0.86
tp2429
a(g21
I1443
F4.61
tp2430
a(g23
I482
F1.54
tp2431
a(g25
I858
F2.74
tp2432
a(g27
I1237
F3.96
tp2433
a(g29
I296
F0.95
tp2434
a(g31
I1448
F4.63
tp2435
a(g33
I2996
F9.58
tp2436
a(g35
I1247
F3.99
tp2437
a(g37
I1275
F4.08
tp2438
a(g39
I1240
F3.96
tp2439
a(g41
I4752
F15.19
tp2440
asS'H100A'
p2441
(lp2442
(g3
I2127
F5.88
tp2443
a(g5
I404
F1.12
tp2444
a(g7
I2393
F6.62
tp2445
a(g9
I728
F2.01
tp2446
a(g11
I2142
F5.92
tp2447
a(g13
I5309
F14.68
tp2448
a(g15
I534
F1.48
tp2449
a(g17
I1037
F2.87
tp2450
a(g19
I297
F0.82
tp2451
a(g21
I1784
F4.93
tp2452
a(g23
I421
F1.16
tp2453
a(g25
I1147
F3.17
tp2454
a(g27
I1317
F3.64
tp2455
a(g29
I449
F1.24
tp2456
a(g31
I1402
F3.88
tp2457
a(g33
I4583
F12.67
tp2458
a(g35
I2020
F5.59
tp2459
a(g37
I2180
F6.03
tp2460
a(g39
I1516
F4.19
tp2461
a(g41
I4362
F12.06
tp2462
asS'H100N'
p2463
(lp2464
(g3
I63
F3.55
tp2465
a(g5
I5
F0.28
tp2466
a(g7
I320
F18.02
tp2467
a(g9
I11
F0.62
tp2468
a(g11
I135
F7.6
tp2469
a(g13
I196
F11.04
tp2470
a(g15
I23
F1.3
tp2471
a(g17
I19
F1.07
tp2472
a(g19
I10
F0.56
tp2473
a(g21
I63
F3.55
tp2474
a(g23
I245
F13.8
tp2475
a(g25
I38
F2.14
tp2476
a(g27
I64
F3.6
tp2477
a(g29
I13
F0.73
tp2478
a(g31
I20
F1.13
tp2479
a(g33
I66
F3.72
tp2480
a(g35
I24
F1.35
tp2481
a(g37
I52
F2.93
tp2482
a(g39
I104
F5.86
tp2483
a(g41
I303
F17.06
tp2484
asS'H100O'
p2485
(lp2486
(g3
I31
F2.4
tp2487
a(g5
I1
F0.08
tp2488
a(g7
I54
F4.19
tp2489
a(g9
I7
F0.54
tp2490
a(g11
I323
F25.06
tp2491
a(g13
I137
F10.63
tp2492
a(g15
I25
F1.94
tp2493
a(g17
I9
F0.7
tp2494
a(g19
I4
F0.31
tp2495
a(g21
I34
F2.64
tp2496
a(g23
I185
F14.35
tp2497
a(g25
I7
F0.54
tp2498
a(g27
I57
F4.42
tp2499
a(g29
I4
F0.31
tp2500
a(g31
I21
F1.63
tp2501
a(g33
I33
F2.56
tp2502
a(g35
I21
F1.63
tp2503
a(g37
I56
F4.34
tp2504
a(g39
I61
F4.73
tp2505
a(g41
I219
F16.99
tp2506
asS'H100L'
p2507
(lp2508
(g3
I99
F2.64
tp2509
a(g5
I12
F0.32
tp2510
a(g7
I155
F4.14
tp2511
a(g9
I18
F0.48
tp2512
a(g11
I484
F12.92
tp2513
a(g13
I440
F11.75
tp2514
a(g15
I55
F1.47
tp2515
a(g17
I35
F0.93
tp2516
a(g19
I21
F0.56
tp2517
a(g21
I117
F3.12
tp2518
a(g23
I570
F15.22
tp2519
a(g25
I327
F8.73
tp2520
a(g27
I109
F2.91
tp2521
a(g29
I21
F0.56
tp2522
a(g31
I63
F1.68
tp2523
a(g33
I118
F3.15
tp2524
a(g35
I66
F1.76
tp2525
a(g37
I97
F2.59
tp2526
a(g39
I177
F4.73
tp2527
a(g41
I760
F20.29
tp2528
asS'H100M'
p2529
(lp2530
(g3
I65
F2.58
tp2531
a(g5
I4
F0.16
tp2532
a(g7
I124
F4.91
tp2533
a(g9
I10
F0.4
tp2534
a(g11
I270
F10.7
tp2535
a(g13
I300
F11.89
tp2536
a(g15
I31
F1.23
tp2537
a(g17
I19
F0.75
tp2538
a(g19
I16
F0.63
tp2539
a(g21
I68
F2.7
tp2540
a(g23
I376
F14.9
tp2541
a(g25
I33
F1.31
tp2542
a(g27
I69
F2.73
tp2543
a(g29
I17
F0.67
tp2544
a(g31
I47
F1.86
tp2545
a(g33
I78
F3.09
tp2546
a(g35
I42
F1.66
tp2547
a(g37
I80
F3.17
tp2548
a(g39
I355
F14.07
tp2549
a(g41
I518
F20.53
tp2550
asS'H100J'
p2551
(lp2552
(g3
I260
F3.64
tp2553
a(g5
I249
F3.48
tp2554
a(g7
I331
F4.63
tp2555
a(g9
I115
F1.61
tp2556
a(g11
I978
F13.68
tp2557
a(g13
I795
F11.12
tp2558
a(g15
I99
F1.39
tp2559
a(g17
I81
F1.13
tp2560
a(g19
I44
F0.62
tp2561
a(g21
I227
F3.18
tp2562
a(g23
I860
F12.03
tp2563
a(g25
I135
F1.89
tp2564
a(g27
I263
F3.68
tp2565
a(g29
I44
F0.62
tp2566
a(g31
I137
F1.92
tp2567
a(g33
I206
F2.88
tp2568
a(g35
I122
F1.71
tp2569
a(g37
I210
F2.94
tp2570
a(g39
I295
F4.13
tp2571
a(g41
I1695
F23.71
tp2572
asS'H100K'
p2573
(lp2574
(g3
I182
F3.47
tp2575
a(g5
I17
F0.32
tp2576
a(g7
I201
F3.83
tp2577
a(g9
I38
F0.72
tp2578
a(g11
I863
F16.46
tp2579
a(g13
I585
F11.16
tp2580
a(g15
I104
F1.98
tp2581
a(g17
I51
F0.97
tp2582
a(g19
I44
F0.84
tp2583
a(g21
I169
F3.22
tp2584
a(g23
I606
F11.56
tp2585
a(g25
I96
F1.83
tp2586
a(g27
I177
F3.38
tp2587
a(g29
I33
F0.63
tp2588
a(g31
I101
F1.93
tp2589
a(g33
I170
F3.24
tp2590
a(g35
I84
F1.6
tp2591
a(g37
I162
F3.09
tp2592
a(g39
I269
F5.13
tp2593
a(g41
I1288
F24.57
tp2594
asS'H100H'
p2595
(lp2596
(g3
I694
F5.41
tp2597
a(g5
I60
F0.47
tp2598
a(g7
I537
F4.19
tp2599
a(g9
I156
F1.22
tp2600
a(g11
I1900
F14.82
tp2601
a(g13
I1346
F10.5
tp2602
a(g15
I202
F1.58
tp2603
a(g17
I233
F1.82
tp2604
a(g19
I172
F1.34
tp2605
a(g21
I633
F4.94
tp2606
a(g23
I711
F5.54
tp2607
a(g25
I402
F3.13
tp2608
a(g27
I488
F3.81
tp2609
a(g29
I91
F0.71
tp2610
a(g31
I452
F3.52
tp2611
a(g33
I489
F3.81
tp2612
a(g35
I306
F2.39
tp2613
a(g37
I285
F2.22
tp2614
a(g39
I555
F4.33
tp2615
a(g41
I3108
F24.24
tp2616
asS'H100I'
p2617
(lp2618
(g3
I515
F5.24
tp2619
a(g5
I52
F0.53
tp2620
a(g7
I621
F6.32
tp2621
a(g9
I170
F1.73
tp2622
a(g11
I1668
F16.97
tp2623
a(g13
I1057
F10.75
tp2624
a(g15
I145
F1.47
tp2625
a(g17
I128
F1.3
tp2626
a(g19
I63
F0.64
tp2627
a(g21
I358
F3.64
tp2628
a(g23
I774
F7.87
tp2629
a(g25
I206
F2.1
tp2630
a(g27
I320
F3.25
tp2631
a(g29
I68
F0.69
tp2632
a(g31
I210
F2.14
tp2633
a(g33
I348
F3.54
tp2634
a(g35
I179
F1.82
tp2635
a(g37
I234
F2.38
tp2636
a(g39
I358
F3.64
tp2637
a(g41
I2356
F23.96
tp2638
asS'H31D'
p2639
(lp2640
(g3
I0
F0.0
tp2641
a(g5
I0
F0.0
tp2642
a(g7
I0
F0.0
tp2643
a(g9
I0
F0.0
tp2644
a(g11
I0
F0.0
tp2645
a(g13
I0
F0.0
tp2646
a(g15
I0
F0.0
tp2647
a(g17
I0
F0.0
tp2648
a(g19
I0
F0.0
tp2649
a(g21
I0
F0.0
tp2650
a(g23
I0
F0.0
tp2651
a(g25
I0
F0.0
tp2652
a(g27
I0
F0.0
tp2653
a(g29
I0
F0.0
tp2654
a(g31
I0
F0.0
tp2655
a(g33
I0
F0.0
tp2656
a(g35
I0
F0.0
tp2657
a(g37
I0
F0.0
tp2658
a(g39
I0
F0.0
tp2659
a(g41
I0
F0.0
tp2660
asS'H31E'
p2661
(lp2662
(g3
I0
F0.0
tp2663
a(g5
I0
F0.0
tp2664
a(g7
I0
F0.0
tp2665
a(g9
I0
F0.0
tp2666
a(g11
I0
F0.0
tp2667
a(g13
I0
F0.0
tp2668
a(g15
I0
F0.0
tp2669
a(g17
I0
F0.0
tp2670
a(g19
I0
F0.0
tp2671
a(g21
I0
F0.0
tp2672
a(g23
I0
F0.0
tp2673
a(g25
I0
F0.0
tp2674
a(g27
I0
F0.0
tp2675
a(g29
I0
F0.0
tp2676
a(g31
I0
F0.0
tp2677
a(g33
I0
F0.0
tp2678
a(g35
I0
F0.0
tp2679
a(g37
I0
F0.0
tp2680
a(g39
I0
F0.0
tp2681
a(g41
I0
F0.0
tp2682
asS'H31F'
p2683
(lp2684
(g3
I0
F0.0
tp2685
a(g5
I0
F0.0
tp2686
a(g7
I0
F0.0
tp2687
a(g9
I0
F0.0
tp2688
a(g11
I0
F0.0
tp2689
a(g13
I0
F0.0
tp2690
a(g15
I0
F0.0
tp2691
a(g17
I0
F0.0
tp2692
a(g19
I0
F0.0
tp2693
a(g21
I0
F0.0
tp2694
a(g23
I0
F0.0
tp2695
a(g25
I0
F0.0
tp2696
a(g27
I0
F0.0
tp2697
a(g29
I0
F0.0
tp2698
a(g31
I0
F0.0
tp2699
a(g33
I0
F0.0
tp2700
a(g35
I0
F0.0
tp2701
a(g37
I0
F0.0
tp2702
a(g39
I0
F0.0
tp2703
a(g41
I0
F0.0
tp2704
asS'H31G'
p2705
(lp2706
(g3
I0
F0.0
tp2707
a(g5
I0
F0.0
tp2708
a(g7
I0
F0.0
tp2709
a(g9
I0
F0.0
tp2710
a(g11
I0
F0.0
tp2711
a(g13
I0
F0.0
tp2712
a(g15
I0
F0.0
tp2713
a(g17
I0
F0.0
tp2714
a(g19
I0
F0.0
tp2715
a(g21
I0
F0.0
tp2716
a(g23
I0
F0.0
tp2717
a(g25
I0
F0.0
tp2718
a(g27
I0
F0.0
tp2719
a(g29
I0
F0.0
tp2720
a(g31
I0
F0.0
tp2721
a(g33
I0
F0.0
tp2722
a(g35
I0
F0.0
tp2723
a(g37
I0
F0.0
tp2724
a(g39
I0
F0.0
tp2725
a(g41
I0
F0.0
tp2726
asS'H31A'
p2727
(lp2728
(g3
I0
F0.0
tp2729
a(g5
I0
F0.0
tp2730
a(g7
I0
F0.0
tp2731
a(g9
I0
F0.0
tp2732
a(g11
I0
F0.0
tp2733
a(g13
I0
F0.0
tp2734
a(g15
I0
F0.0
tp2735
a(g17
I0
F0.0
tp2736
a(g19
I0
F0.0
tp2737
a(g21
I0
F0.0
tp2738
a(g23
I0
F0.0
tp2739
a(g25
I0
F0.0
tp2740
a(g27
I0
F0.0
tp2741
a(g29
I0
F0.0
tp2742
a(g31
I0
F0.0
tp2743
a(g33
I0
F0.0
tp2744
a(g35
I0
F0.0
tp2745
a(g37
I0
F0.0
tp2746
a(g39
I0
F0.0
tp2747
a(g41
I0
F0.0
tp2748
asS'H31B'
p2749
(lp2750
(g3
I0
F0.0
tp2751
a(g5
I0
F0.0
tp2752
a(g7
I0
F0.0
tp2753
a(g9
I0
F0.0
tp2754
a(g11
I0
F0.0
tp2755
a(g13
I0
F0.0
tp2756
a(g15
I0
F0.0
tp2757
a(g17
I0
F0.0
tp2758
a(g19
I0
F0.0
tp2759
a(g21
I0
F0.0
tp2760
a(g23
I0
F0.0
tp2761
a(g25
I0
F0.0
tp2762
a(g27
I0
F0.0
tp2763
a(g29
I0
F0.0
tp2764
a(g31
I0
F0.0
tp2765
a(g33
I0
F0.0
tp2766
a(g35
I0
F0.0
tp2767
a(g37
I0
F0.0
tp2768
a(g39
I0
F0.0
tp2769
a(g41
I0
F0.0
tp2770
asS'H31C'
p2771
(lp2772
(g3
I0
F0.0
tp2773
a(g5
I0
F0.0
tp2774
a(g7
I0
F0.0
tp2775
a(g9
I0
F0.0
tp2776
a(g11
I0
F0.0
tp2777
a(g13
I0
F0.0
tp2778
a(g15
I0
F0.0
tp2779
a(g17
I0
F0.0
tp2780
a(g19
I0
F0.0
tp2781
a(g21
I0
F0.0
tp2782
a(g23
I0
F0.0
tp2783
a(g25
I0
F0.0
tp2784
a(g27
I0
F0.0
tp2785
a(g29
I0
F0.0
tp2786
a(g31
I0
F0.0
tp2787
a(g33
I0
F0.0
tp2788
a(g35
I0
F0.0
tp2789
a(g37
I0
F0.0
tp2790
a(g39
I0
F0.0
tp2791
a(g41
I0
F0.0
tp2792
asS'H31H'
p2793
(lp2794
(g3
I0
F0.0
tp2795
a(g5
I0
F0.0
tp2796
a(g7
I0
F0.0
tp2797
a(g9
I0
F0.0
tp2798
a(g11
I0
F0.0
tp2799
a(g13
I0
F0.0
tp2800
a(g15
I0
F0.0
tp2801
a(g17
I0
F0.0
tp2802
a(g19
I0
F0.0
tp2803
a(g21
I0
F0.0
tp2804
a(g23
I0
F0.0
tp2805
a(g25
I0
F0.0
tp2806
a(g27
I0
F0.0
tp2807
a(g29
I0
F0.0
tp2808
a(g31
I0
F0.0
tp2809
a(g33
I0
F0.0
tp2810
a(g35
I0
F0.0
tp2811
a(g37
I0
F0.0
tp2812
a(g39
I0
F0.0
tp2813
a(g41
I0
F0.0
tp2814
asS'H2'
p2815
(lp2816
(g3
I840
F3.0
tp2817
a(g5
I64
F0.23
tp2818
a(g7
I18
F0.06
tp2819
a(g9
I243
F0.87
tp2820
a(g11
I11
F0.04
tp2821
a(g13
I207
F0.74
tp2822
a(g15
I70
F0.25
tp2823
a(g17
I359
F1.28
tp2824
a(g19
I84
F0.3
tp2825
a(g21
I651
F2.32
tp2826
a(g23
I277
F0.99
tp2827
a(g25
I1
F0.0
tp2828
a(g27
I27
F0.1
tp2829
a(g29
I158
F0.56
tp2830
a(g31
I19
F0.07
tp2831
a(g33
I160
F0.57
tp2832
a(g35
I38
F0.14
tp2833
a(g37
I24757
F88.37
tp2834
a(g39
I8
F0.03
tp2835
a(g41
I1
F0.0
tp2836
asS'H3'
p2837
(lp2838
(g3
I185
F0.65
tp2839
a(g5
I5
F0.02
tp2840
a(g7
I32
F0.11
tp2841
a(g9
I162
F0.57
tp2842
a(g11
I21
F0.07
tp2843
a(g13
I7
F0.02
tp2844
a(g15
I1527
F5.39
tp2845
a(g17
I13
F0.05
tp2846
a(g19
I300
F1.06
tp2847
a(g21
I260
F0.92
tp2848
a(g23
I4
F0.01
tp2849
a(g25
I108
F0.38
tp2850
a(g27
I56
F0.2
tp2851
a(g29
I23987
F84.61
tp2852
a(g31
I686
F2.42
tp2853
a(g33
I245
F0.86
tp2854
a(g35
I482
F1.7
tp2855
a(g37
I45
F0.16
tp2856
a(g39
I7
F0.02
tp2857
a(g41
I182
F0.64
tp2858
asS'H111'
p2859
(lp2860
(g3
I59
F0.22
tp2861
a(g5
I10
F0.04
tp2862
a(g7
I18
F0.07
tp2863
a(g9
I1
F0.0
tp2864
a(g11
I41
F0.16
tp2865
a(g13
I27
F0.1
tp2866
a(g15
I2
F0.01
tp2867
a(g17
I99
F0.38
tp2868
a(g19
I2
F0.01
tp2869
a(g21
I38
F0.14
tp2870
a(g23
I2
F0.01
tp2871
a(g25
I4
F0.02
tp2872
a(g27
I17
F0.06
tp2873
a(g29
I0
F0.0
tp2874
a(g31
I107
F0.41
tp2875
a(g33
I169
F0.64
tp2876
a(g35
I6
F0.02
tp2877
a(g37
I25674
F97.63
tp2878
a(g39
I3
F0.01
tp2879
a(g41
I2
F0.01
tp2880
asS'H114'
p2881
(lp2882
(g3
I0
F0.0
tp2883
a(g5
I0
F0.0
tp2884
a(g7
I0
F0.0
tp2885
a(g9
I0
F0.0
tp2886
a(g11
I0
F0.0
tp2887
a(g13
I0
F0.0
tp2888
a(g15
I0
F0.0
tp2889
a(g17
I0
F0.0
tp2890
a(g19
I0
F0.0
tp2891
a(g21
I0
F0.0
tp2892
a(g23
I0
F0.0
tp2893
a(g25
I0
F0.0
tp2894
a(g27
I0
F0.0
tp2895
a(g29
I0
F0.0
tp2896
a(g31
I0
F0.0
tp2897
a(g33
I4
F100.0
tp2898
a(g35
I0
F0.0
tp2899
a(g37
I0
F0.0
tp2900
a(g39
I0
F0.0
tp2901
a(g41
I0
F0.0
tp2902
asS'H52C'
p2903
(lp2904
(g3
I587
F29.53
tp2905
a(g5
I0
F0.0
tp2906
a(g7
I30
F1.51
tp2907
a(g9
I19
F0.96
tp2908
a(g11
I31
F1.56
tp2909
a(g13
I128
F6.44
tp2910
a(g15
I12
F0.6
tp2911
a(g17
I60
F3.02
tp2912
a(g19
I14
F0.7
tp2913
a(g21
I38
F1.91
tp2914
a(g23
I2
F0.1
tp2915
a(g25
I33
F1.66
tp2916
a(g27
I43
F2.16
tp2917
a(g29
I0
F0.0
tp2918
a(g31
I49
F2.46
tp2919
a(g33
I148
F7.44
tp2920
a(g35
I685
F34.46
tp2921
a(g37
I87
F4.38
tp2922
a(g39
I7
F0.35
tp2923
a(g41
I15
F0.75
tp2924
asS'H52B'
p2925
(lp2926
(g3
I11
F0.23
tp2927
a(g5
I5
F0.1
tp2928
a(g7
I25
F0.51
tp2929
a(g9
I84
F1.72
tp2930
a(g11
I7
F0.14
tp2931
a(g13
I46
F0.94
tp2932
a(g15
I8
F0.16
tp2933
a(g17
I17
F0.35
tp2934
a(g19
I1413
F29.01
tp2935
a(g21
I12
F0.25
tp2936
a(g23
I14
F0.29
tp2937
a(g25
I81
F1.66
tp2938
a(g27
I20
F0.41
tp2939
a(g29
I62
F1.27
tp2940
a(g31
I1823
F37.43
tp2941
a(g33
I96
F1.97
tp2942
a(g35
I73
F1.5
tp2943
a(g37
I1047
F21.49
tp2944
a(g39
I8
F0.16
tp2945
a(g41
I19
F0.39
tp2946
asS'H52A'
p2947
(lp2948
(g3
I2016
F5.88
tp2949
a(g5
I33
F0.1
tp2950
a(g7
I556
F1.62
tp2951
a(g9
I323
F0.94
tp2952
a(g11
I574
F1.68
tp2953
a(g13
I5630
F16.43
tp2954
a(g15
I421
F1.23
tp2955
a(g17
I339
F0.99
tp2956
a(g19
I168
F0.49
tp2957
a(g21
I142
F0.41
tp2958
a(g23
I10
F0.03
tp2959
a(g25
I733
F2.14
tp2960
a(g27
I9347
F27.28
tp2961
a(g29
I957
F2.79
tp2962
a(g31
I368
F1.07
tp2963
a(g33
I4421
F12.9
tp2964
a(g35
I1629
F4.75
tp2965
a(g37
I322
F0.94
tp2966
a(g39
I1088
F3.18
tp2967
a(g41
I5184
F15.13
tp2968
asS'H52G'
p2969
(lp2970
(g3
I0
F0.0
tp2971
a(g5
I0
F0.0
tp2972
a(g7
I0
F0.0
tp2973
a(g9
I0
F0.0
tp2974
a(g11
I0
F0.0
tp2975
a(g13
I2
F5.71
tp2976
a(g15
I0
F0.0
tp2977
a(g17
I0
F0.0
tp2978
a(g19
I1
F2.86
tp2979
a(g21
I0
F0.0
tp2980
a(g23
I0
F0.0
tp2981
a(g25
I27
F77.14
tp2982
a(g27
I0
F0.0
tp2983
a(g29
I0
F0.0
tp2984
a(g31
I0
F0.0
tp2985
a(g33
I4
F11.43
tp2986
a(g35
I1
F2.86
tp2987
a(g37
I0
F0.0
tp2988
a(g39
I0
F0.0
tp2989
a(g41
I0
F0.0
tp2990
asS'H52F'
p2991
(lp2992
(g3
I1
F2.0
tp2993
a(g5
I0
F0.0
tp2994
a(g7
I2
F4.0
tp2995
a(g9
I0
F0.0
tp2996
a(g11
I0
F0.0
tp2997
a(g13
I1
F2.0
tp2998
a(g15
I0
F0.0
tp2999
a(g17
I1
F2.0
tp3000
a(g19
I0
F0.0
tp3001
a(g21
I1
F2.0
tp3002
a(g23
I0
F0.0
tp3003
a(g25
I2
F4.0
tp3004
a(g27
I0
F0.0
tp3005
a(g29
I0
F0.0
tp3006
a(g31
I1
F2.0
tp3007
a(g33
I1
F2.0
tp3008
a(g35
I2
F4.0
tp3009
a(g37
I32
F64.0
tp3010
a(g39
I2
F4.0
tp3011
a(g41
I4
F8.0
tp3012
asS'H52E'
p3013
(lp3014
(g3
I38
F53.52
tp3015
a(g5
I1
F1.41
tp3016
a(g7
I0
F0.0
tp3017
a(g9
I0
F0.0
tp3018
a(g11
I0
F0.0
tp3019
a(g13
I3
F4.23
tp3020
a(g15
I0
F0.0
tp3021
a(g17
I2
F2.82
tp3022
a(g19
I1
F1.41
tp3023
a(g21
I0
F0.0
tp3024
a(g23
I0
F0.0
tp3025
a(g25
I5
F7.04
tp3026
a(g27
I0
F0.0
tp3027
a(g29
I0
F0.0
tp3028
a(g31
I3
F4.23
tp3029
a(g33
I6
F8.45
tp3030
a(g35
I2
F2.82
tp3031
a(g37
I2
F2.82
tp3032
a(g39
I1
F1.41
tp3033
a(g41
I6
F8.45
tp3034
asS'H52D'
p3035
(lp3036
(g3
I2
F1.85
tp3037
a(g5
I0
F0.0
tp3038
a(g7
I11
F10.19
tp3039
a(g9
I1
F0.93
tp3040
a(g11
I0
F0.0
tp3041
a(g13
I50
F46.3
tp3042
a(g15
I2
F1.85
tp3043
a(g17
I4
F3.7
tp3044
a(g19
I3
F2.78
tp3045
a(g21
I2
F1.85
tp3046
a(g23
I0
F0.0
tp3047
a(g25
I6
F5.56
tp3048
a(g27
I3
F2.78
tp3049
a(g29
I2
F1.85
tp3050
a(g31
I1
F0.93
tp3051
a(g33
I14
F12.96
tp3052
a(g35
I4
F3.7
tp3053
a(g37
I3
F2.78
tp3054
a(g39
I0
F0.0
tp3055
a(g41
I0
F0.0
tp3056
asS'H32'
p3057
(lp3058
(g3
I1271
F2.86
tp3059
a(g5
I348
F0.78
tp3060
a(g7
I450
F1.01
tp3061
a(g9
I91
F0.2
tp3062
a(g11
I1624
F3.65
tp3063
a(g13
I2086
F4.69
tp3064
a(g15
I1546
F3.48
tp3065
a(g17
I334
F0.75
tp3066
a(g19
I118
F0.27
tp3067
a(g21
I234
F0.53
tp3068
a(g23
I611
F1.37
tp3069
a(g25
I2649
F5.96
tp3070
a(g27
I92
F0.21
tp3071
a(g29
I73
F0.16
tp3072
a(g31
I221
F0.5
tp3073
a(g33
I3668
F8.25
tp3074
a(g35
I1131
F2.54
tp3075
a(g37
I188
F0.42
tp3076
a(g39
I91
F0.2
tp3077
a(g41
I27616
F62.12
tp3078
asS'H33'
p3079
(lp3080
(g3
I11037
F25.11
tp3081
a(g5
I78
F0.18
tp3082
a(g7
I1576
F3.58
tp3083
a(g9
I1457
F3.31
tp3084
a(g11
I733
F1.67
tp3085
a(g13
I6091
F13.86
tp3086
a(g15
I621
F1.41
tp3087
a(g17
I186
F0.42
tp3088
a(g19
I80
F0.18
tp3089
a(g21
I324
F0.74
tp3090
a(g23
I104
F0.24
tp3091
a(g25
I1056
F2.4
tp3092
a(g27
I369
F0.84
tp3093
a(g29
I53
F0.12
tp3094
a(g31
I353
F0.8
tp3095
a(g33
I4491
F10.22
tp3096
a(g35
I1034
F2.35
tp3097
a(g37
I1243
F2.83
tp3098
a(g39
I5556
F12.64
tp3099
a(g41
I7507
F17.08
tp3100
asS'H30'
p3101
(lp3102
(g3
I460
F1.03
tp3103
a(g5
I14
F0.03
tp3104
a(g7
I1399
F3.13
tp3105
a(g9
I909
F2.03
tp3106
a(g11
I342
F0.77
tp3107
a(g13
I1921
F4.3
tp3108
a(g15
I147
F0.33
tp3109
a(g17
I562
F1.26
tp3110
a(g19
I341
F0.76
tp3111
a(g21
I85
F0.19
tp3112
a(g23
I211
F0.47
tp3113
a(g25
I2024
F4.53
tp3114
a(g27
I133
F0.3
tp3115
a(g29
I22
F0.05
tp3116
a(g31
I1628
F3.64
tp3117
a(g33
I25274
F56.54
tp3118
a(g35
I7706
F17.24
tp3119
a(g37
I245
F0.55
tp3120
a(g39
I122
F0.27
tp3121
a(g41
I1141
F2.55
tp3122
asS'H31'
p3123
(lp3124
(g3
I925
F2.07
tp3125
a(g5
I24
F0.05
tp3126
a(g7
I4504
F10.08
tp3127
a(g9
I547
F1.22
tp3128
a(g11
I110
F0.25
tp3129
a(g13
I3719
F8.32
tp3130
a(g15
I315
F0.7
tp3131
a(g17
I452
F1.01
tp3132
a(g19
I806
F1.8
tp3133
a(g21
I111
F0.25
tp3134
a(g23
I390
F0.87
tp3135
a(g25
I5397
F12.07
tp3136
a(g27
I88
F0.2
tp3137
a(g29
I51
F0.11
tp3138
a(g31
I1660
F3.71
tp3139
a(g33
I19865
F44.44
tp3140
a(g35
I3851
F8.61
tp3141
a(g37
I626
F1.4
tp3142
a(g39
I563
F1.26
tp3143
a(g41
I677
F1.51
tp3144
asS'H36'
p3145
(lp3146
(g3
I0
F0.0
tp3147
a(g5
I19
F0.04
tp3148
a(g7
I0
F0.0
tp3149
a(g9
I1
F0.0
tp3150
a(g11
I7
F0.02
tp3151
a(g13
I11
F0.02
tp3152
a(g15
I0
F0.0
tp3153
a(g17
I0
F0.0
tp3154
a(g19
I0
F0.0
tp3155
a(g21
I17
F0.04
tp3156
a(g23
I0
F0.0
tp3157
a(g25
I1
F0.0
tp3158
a(g27
I0
F0.0
tp3159
a(g29
I0
F0.0
tp3160
a(g31
I48
F0.11
tp3161
a(g33
I4
F0.01
tp3162
a(g35
I0
F0.0
tp3163
a(g37
I0
F0.0
tp3164
a(g39
I44588
F99.74
tp3165
a(g41
I3
F0.01
tp3166
asS'H37'
p3167
(lp3168
(g3
I147
F0.33
tp3169
a(g5
I0
F0.0
tp3170
a(g7
I2
F0.0
tp3171
a(g9
I1
F0.0
tp3172
a(g11
I339
F0.76
tp3173
a(g13
I11
F0.02
tp3174
a(g15
I1
F0.0
tp3175
a(g17
I11162
F24.97
tp3176
a(g19
I0
F0.0
tp3177
a(g21
I456
F1.02
tp3178
a(g23
I96
F0.21
tp3179
a(g25
I4
F0.01
tp3180
a(g27
I1
F0.0
tp3181
a(g29
I1
F0.0
tp3182
a(g31
I0
F0.0
tp3183
a(g33
I11
F0.02
tp3184
a(g35
I28
F0.06
tp3185
a(g37
I32424
F72.53
tp3186
a(g39
I10
F0.02
tp3187
a(g41
I6
F0.01
tp3188
asS'H34'
p3189
(lp3190
(g3
I1516
F3.53
tp3191
a(g5
I21
F0.05
tp3192
a(g7
I41
F0.1
tp3193
a(g9
I23
F0.05
tp3194
a(g11
I497
F1.16
tp3195
a(g13
I626
F1.46
tp3196
a(g15
I143
F0.33
tp3197
a(g17
I8029
F18.67
tp3198
a(g19
I12
F0.03
tp3199
a(g21
I1948
F4.53
tp3200
a(g23
I21423
F49.83
tp3201
a(g25
I175
F0.41
tp3202
a(g27
I10
F0.02
tp3203
a(g29
I1
F0.0
tp3204
a(g31
I24
F0.06
tp3205
a(g33
I510
F1.19
tp3206
a(g35
I125
F0.29
tp3207
a(g37
I1350
F3.14
tp3208
a(g39
I3983
F9.26
tp3209
a(g41
I2527
F5.88
tp3210
asS'H35'
p3211
(lp3212
(g3
I2130
F5.08
tp3213
a(g5
I213
F0.51
tp3214
a(g7
I314
F0.75
tp3215
a(g9
I29
F0.07
tp3216
a(g11
I162
F0.39
tp3217
a(g13
I2406
F5.74
tp3218
a(g15
I10359
F24.72
tp3219
a(g17
I1127
F2.69
tp3220
a(g19
I28
F0.07
tp3221
a(g21
I54
F0.13
tp3222
a(g23
I193
F0.46
tp3223
a(g25
I5118
F12.21
tp3224
a(g27
I8
F0.02
tp3225
a(g29
I268
F0.64
tp3226
a(g31
I139
F0.33
tp3227
a(g33
I13360
F31.88
tp3228
a(g35
I2771
F6.61
tp3229
a(g37
I80
F0.19
tp3230
a(g39
I665
F1.59
tp3231
a(g41
I2474
F5.9
tp3232
asS'H38'
p3233
(lp3234
(g3
I2
F0.0
tp3235
a(g5
I29
F0.06
tp3236
a(g7
I2
F0.0
tp3237
a(g9
I0
F0.0
tp3238
a(g11
I1
F0.0
tp3239
a(g13
I18
F0.04
tp3240
a(g15
I33
F0.07
tp3241
a(g17
I1
F0.0
tp3242
a(g19
I49
F0.11
tp3243
a(g21
I15
F0.03
tp3244
a(g23
I0
F0.0
tp3245
a(g25
I0
F0.0
tp3246
a(g27
I25
F0.06
tp3247
a(g29
I69
F0.15
tp3248
a(g31
I44439
F99.41
tp3249
a(g33
I7
F0.02
tp3250
a(g35
I1
F0.0
tp3251
a(g37
I0
F0.0
tp3252
a(g39
I4
F0.01
tp3253
a(g41
I1
F0.0
tp3254
asS'H39'
p3255
(lp3256
(g3
I0
F0.0
tp3257
a(g5
I0
F0.0
tp3258
a(g7
I0
F0.0
tp3259
a(g9
I21
F0.05
tp3260
a(g11
I0
F0.0
tp3261
a(g13
I0
F0.0
tp3262
a(g15
I249
F0.56
tp3263
a(g17
I0
F0.0
tp3264
a(g19
I39
F0.09
tp3265
a(g21
I279
F0.62
tp3266
a(g23
I1
F0.0
tp3267
a(g25
I0
F0.0
tp3268
a(g27
I9
F0.02
tp3269
a(g29
I43800
F97.98
tp3270
a(g31
I278
F0.62
tp3271
a(g33
I8
F0.02
tp3272
a(g35
I2
F0.0
tp3273
a(g37
I0
F0.0
tp3274
a(g39
I4
F0.01
tp3275
a(g41
I8
F0.02
tp3276
asS'H47'
p3277
(lp3278
(g3
I7
F0.02
tp3279
a(g5
I233
F0.52
tp3280
a(g7
I2
F0.0
tp3281
a(g9
I2
F0.0
tp3282
a(g11
I71
F0.16
tp3283
a(g13
I25
F0.06
tp3284
a(g15
I33
F0.07
tp3285
a(g17
I3
F0.01
tp3286
a(g19
I0
F0.0
tp3287
a(g21
I91
F0.2
tp3288
a(g23
I2
F0.0
tp3289
a(g25
I1
F0.0
tp3290
a(g27
I2
F0.0
tp3291
a(g29
I0
F0.0
tp3292
a(g31
I66
F0.15
tp3293
a(g33
I67
F0.15
tp3294
a(g35
I0
F0.0
tp3295
a(g37
I3
F0.01
tp3296
a(g39
I43623
F97.58
tp3297
a(g41
I468
F1.05
tp3298
asS'H46'
p3299
(lp3300
(g3
I38
F0.09
tp3301
a(g5
I0
F0.0
tp3302
a(g7
I301
F0.67
tp3303
a(g9
I42977
F96.14
tp3304
a(g11
I2
F0.0
tp3305
a(g13
I57
F0.13
tp3306
a(g15
I9
F0.02
tp3307
a(g17
I5
F0.01
tp3308
a(g19
I63
F0.14
tp3309
a(g21
I18
F0.04
tp3310
a(g23
I39
F0.09
tp3311
a(g25
I15
F0.03
tp3312
a(g27
I0
F0.0
tp3313
a(g29
I451
F1.01
tp3314
a(g31
I2
F0.0
tp3315
a(g33
I3
F0.01
tp3316
a(g35
I19
F0.04
tp3317
a(g37
I693
F1.55
tp3318
a(g39
I1
F0.0
tp3319
a(g41
I5
F0.01
tp3320
asS'H45'
p3321
(lp3322
(g3
I2
F0.0
tp3323
a(g5
I0
F0.0
tp3324
a(g7
I0
F0.0
tp3325
a(g9
I2
F0.0
tp3326
a(g11
I370
F0.83
tp3327
a(g13
I0
F0.0
tp3328
a(g15
I5
F0.01
tp3329
a(g17
I5
F0.01
tp3330
a(g19
I1
F0.0
tp3331
a(g21
I43164
F96.56
tp3332
a(g23
I45
F0.1
tp3333
a(g25
I0
F0.0
tp3334
a(g27
I1049
F2.35
tp3335
a(g29
I7
F0.02
tp3336
a(g31
I19
F0.04
tp3337
a(g33
I1
F0.0
tp3338
a(g35
I2
F0.0
tp3339
a(g37
I23
F0.05
tp3340
a(g39
I0
F0.0
tp3341
a(g41
I0
F0.0
tp3342
asS'H44'
p3343
(lp3344
(g3
I1722
F3.85
tp3345
a(g5
I1
F0.0
tp3346
a(g7
I29
F0.06
tp3347
a(g9
I56
F0.13
tp3348
a(g11
I1
F0.0
tp3349
a(g13
I41462
F92.76
tp3350
a(g15
I29
F0.06
tp3351
a(g17
I1
F0.0
tp3352
a(g19
I10
F0.02
tp3353
a(g21
I0
F0.0
tp3354
a(g23
I2
F0.0
tp3355
a(g25
I17
F0.04
tp3356
a(g27
I15
F0.03
tp3357
a(g29
I7
F0.02
tp3358
a(g31
I1025
F2.29
tp3359
a(g33
I114
F0.26
tp3360
a(g35
I180
F0.4
tp3361
a(g37
I14
F0.03
tp3362
a(g39
I5
F0.01
tp3363
a(g41
I0
F0.0
tp3364
asS'H43'
p3365
(lp3366
(g3
I11
F0.02
tp3367
a(g5
I0
F0.0
tp3368
a(g7
I1
F0.0
tp3369
a(g9
I394
F0.88
tp3370
a(g11
I0
F0.0
tp3371
a(g13
I157
F0.35
tp3372
a(g15
I110
F0.25
tp3373
a(g17
I4
F0.01
tp3374
a(g19
I31477
F70.42
tp3375
a(g21
I24
F0.05
tp3376
a(g23
I100
F0.22
tp3377
a(g25
I49
F0.11
tp3378
a(g27
I13
F0.03
tp3379
a(g29
I9175
F20.52
tp3380
a(g31
I3045
F6.81
tp3381
a(g33
I21
F0.05
tp3382
a(g35
I114
F0.26
tp3383
a(g37
I5
F0.01
tp3384
a(g39
I0
F0.0
tp3385
a(g41
I1
F0.0
tp3386
asS'H42'
p3387
(lp3388
(g3
I88
F0.2
tp3389
a(g5
I2
F0.0
tp3390
a(g7
I127
F0.28
tp3391
a(g9
I262
F0.59
tp3392
a(g11
I0
F0.0
tp3393
a(g13
I42076
F94.13
tp3394
a(g15
I8
F0.02
tp3395
a(g17
I1
F0.0
tp3396
a(g19
I14
F0.03
tp3397
a(g21
I9
F0.02
tp3398
a(g23
I2
F0.0
tp3399
a(g25
I7
F0.02
tp3400
a(g27
I3
F0.01
tp3401
a(g29
I13
F0.03
tp3402
a(g31
I117
F0.26
tp3403
a(g33
I1795
F4.02
tp3404
a(g35
I80
F0.18
tp3405
a(g37
I66
F0.15
tp3406
a(g39
I19
F0.04
tp3407
a(g41
I0
F0.0
tp3408
asS'H41'
p3409
(lp3410
(g3
I679
F1.52
tp3411
a(g5
I0
F0.0
tp3412
a(g7
I1
F0.0
tp3413
a(g9
I1
F0.0
tp3414
a(g11
I0
F0.0
tp3415
a(g13
I0
F0.0
tp3416
a(g15
I16
F0.04
tp3417
a(g17
I87
F0.19
tp3418
a(g19
I1
F0.0
tp3419
a(g21
I39
F0.09
tp3420
a(g23
I1
F0.0
tp3421
a(g25
I4
F0.01
tp3422
a(g27
I42587
F95.27
tp3423
a(g29
I37
F0.08
tp3424
a(g31
I116
F0.26
tp3425
a(g33
I381
F0.85
tp3426
a(g35
I740
F1.66
tp3427
a(g37
I3
F0.01
tp3428
a(g39
I0
F0.0
tp3429
a(g41
I0
F0.0
tp3430
asS'H40'
p3431
(lp3432
(g3
I28831
F64.5
tp3433
a(g5
I4
F0.01
tp3434
a(g7
I113
F0.25
tp3435
a(g9
I32
F0.07
tp3436
a(g11
I28
F0.06
tp3437
a(g13
I226
F0.51
tp3438
a(g15
I602
F1.35
tp3439
a(g17
I150
F0.34
tp3440
a(g19
I51
F0.11
tp3441
a(g21
I151
F0.34
tp3442
a(g23
I2037
F4.56
tp3443
a(g25
I12
F0.03
tp3444
a(g27
I7731
F17.3
tp3445
a(g29
I14
F0.03
tp3446
a(g31
I148
F0.33
tp3447
a(g33
I2786
F6.23
tp3448
a(g35
I871
F1.95
tp3449
a(g37
I884
F1.98
tp3450
a(g39
I1
F0.0
tp3451
a(g41
I21
F0.05
tp3452
asS'H49'
p3453
(lp3454
(g3
I8904
F19.92
tp3455
a(g5
I9
F0.02
tp3456
a(g7
I4
F0.01
tp3457
a(g9
I12
F0.03
tp3458
a(g11
I0
F0.0
tp3459
a(g13
I23117
F51.71
tp3460
a(g15
I0
F0.0
tp3461
a(g17
I2
F0.0
tp3462
a(g19
I0
F0.0
tp3463
a(g21
I25
F0.06
tp3464
a(g23
I0
F0.0
tp3465
a(g25
I2
F0.0
tp3466
a(g27
I20
F0.04
tp3467
a(g29
I1
F0.0
tp3468
a(g31
I17
F0.04
tp3469
a(g33
I12356
F27.64
tp3470
a(g35
I191
F0.43
tp3471
a(g37
I38
F0.09
tp3472
a(g39
I1
F0.0
tp3473
a(g41
I1
F0.0
tp3474
asS'H48'
p3475
(lp3476
(g3
I66
F0.15
tp3477
a(g5
I0
F0.0
tp3478
a(g7
I2
F0.0
tp3479
a(g9
I3
F0.01
tp3480
a(g11
I19
F0.04
tp3481
a(g13
I7
F0.02
tp3482
a(g15
I0
F0.0
tp3483
a(g17
I9507
F21.27
tp3484
a(g19
I0
F0.0
tp3485
a(g21
I4654
F10.41
tp3486
a(g23
I10195
F22.81
tp3487
a(g25
I2
F0.0
tp3488
a(g27
I9
F0.02
tp3489
a(g29
I1
F0.0
tp3490
a(g31
I0
F0.0
tp3491
a(g33
I7
F0.02
tp3492
a(g35
I16
F0.04
tp3493
a(g37
I20211
F45.21
tp3494
a(g39
I0
F0.0
tp3495
a(g41
I1
F0.0
tp3496
as.